ccollections
OrderedDict
p0
((lp1
(lp2
Vgrinning-face
p3
aV\U0001f600
p4
aa(lp5
Vgrinning-face-with-smiling-eyes
p6
aV\U0001f601
p7
aa(lp8
Vface-with-tears-of-joy
p9
aV\U0001f602
p10
aa(lp11
Vrolling-on-the-floor-laughing
p12
aV\U0001f923
p13
aa(lp14
Vsmiling-face-with-open-mouth
p15
aV\U0001f603
p16
aa(lp17
Vsmiling-face-with-open-mouth-and-smiling-eyes
p18
aV\U0001f604
p19
aa(lp20
Vsmiling-face-with-open-mouth-and-cold-sweat
p21
aV\U0001f605
p22
aa(lp23
Vsmiling-face-with-open-mouth-and-tightly-closed-eyes
p24
aV\U0001f606
p25
aa(lp26
Vwinking-face
p27
aV\U0001f609
p28
aa(lp29
Vsmiling-face-with-smiling-eyes
p30
aV\U0001f60a
p31
aa(lp32
Vface-savouring-delicious-food
p33
aV\U0001f60b
p34
aa(lp35
Vsmiling-face-with-sunglasses
p36
aV\U0001f60e
p37
aa(lp38
Vsmiling-face-with-heart-shaped-eyes
p39
aV\U0001f60d
p40
aa(lp41
Vface-throwing-a-kiss
p42
aV\U0001f618
p43
aa(lp44
Vkissing-face
p45
aV\U0001f617
p46
aa(lp47
Vkissing-face-with-smiling-eyes
p48
aV\U0001f619
p49
aa(lp50
Vkissing-face-with-closed-eyes
p51
aV\U0001f61a
p52
aa(lp53
Vwhite-smiling-face
p54
aV\u263a\ufe0f
p55
aa(lp56
Vslightly-smiling-face
p57
aV\U0001f642
p58
aa(lp59
Vhugging-face
p60
aV\U0001f917
p61
aa(lp62
Vgrinning-face-with-star-eyes
p63
aV\U0001f929
p64
aa(lp65
Vthinking-face
p66
aV\U0001f914
p67
aa(lp68
Vface-with-one-eyebrow-raised
p69
aV\U0001f928
p70
aa(lp71
Vneutral-face
p72
aV\U0001f610
p73
aa(lp74
Vexpressionless-face
p75
aV\U0001f611
p76
aa(lp77
Vface-without-mouth
p78
aV\U0001f636
p79
aa(lp80
Vface-with-rolling-eyes
p81
aV\U0001f644
p82
aa(lp83
Vsmirking-face
p84
aV\U0001f60f
p85
aa(lp86
Vpersevering-face
p87
aV\U0001f623
p88
aa(lp89
Vdisappointed-but-relieved-face
p90
aV\U0001f625
p91
aa(lp92
Vface-with-open-mouth
p93
aV\U0001f62e
p94
aa(lp95
Vzipper-mouth-face
p96
aV\U0001f910
p97
aa(lp98
Vhushed-face
p99
aV\U0001f62f
p100
aa(lp101
Vsleepy-face
p102
aV\U0001f62a
p103
aa(lp104
Vtired-face
p105
aV\U0001f62b
p106
aa(lp107
Vsleeping-face
p108
aV\U0001f634
p109
aa(lp110
Vrelieved-face
p111
aV\U0001f60c
p112
aa(lp113
Vface-with-stuck-out-tongue
p114
aV\U0001f61b
p115
aa(lp116
Vface-with-stuck-out-tongue-and-winking-eye
p117
aV\U0001f61c
p118
aa(lp119
Vface-with-stuck-out-tongue-and-tightly-closed-eyes
p120
aV\U0001f61d
p121
aa(lp122
Vdrooling-face
p123
aV\U0001f924
p124
aa(lp125
Vunamused-face
p126
aV\U0001f612
p127
aa(lp128
Vface-with-cold-sweat
p129
aV\U0001f613
p130
aa(lp131
Vpensive-face
p132
aV\U0001f614
p133
aa(lp134
Vconfused-face
p135
aV\U0001f615
p136
aa(lp137
Vupside-down-face
p138
aV\U0001f643
p139
aa(lp140
Vmoney-mouth-face
p141
aV\U0001f911
p142
aa(lp143
Vastonished-face
p144
aV\U0001f632
p145
aa(lp146
Vwhite-frowning-face
p147
aV\u2639\ufe0f
p148
aa(lp149
Vslightly-frowning-face
p150
aV\U0001f641
p151
aa(lp152
Vconfounded-face
p153
aV\U0001f616
p154
aa(lp155
Vdisappointed-face
p156
aV\U0001f61e
p157
aa(lp158
Vworried-face
p159
aV\U0001f61f
p160
aa(lp161
Vface-with-look-of-triumph
p162
aV\U0001f624
p163
aa(lp164
Vcrying-face
p165
aV\U0001f622
p166
aa(lp167
Vloudly-crying-face
p168
aV\U0001f62d
p169
aa(lp170
Vfrowning-face-with-open-mouth
p171
aV\U0001f626
p172
aa(lp173
Vanguished-face
p174
aV\U0001f627
p175
aa(lp176
Vfearful-face
p177
aV\U0001f628
p178
aa(lp179
Vweary-face
p180
aV\U0001f629
p181
aa(lp182
Vshocked-face-with-exploding-head
p183
aV\U0001f92f
p184
aa(lp185
Vgrimacing-face
p186
aV\U0001f62c
p187
aa(lp188
Vface-with-open-mouth-and-cold-sweat
p189
aV\U0001f630
p190
aa(lp191
Vface-screaming-in-fear
p192
aV\U0001f631
p193
aa(lp194
Vflushed-face
p195
aV\U0001f633
p196
aa(lp197
Vgrinning-face-with-one-large-and-one-small-eye
p198
aV\U0001f92a
p199
aa(lp200
Vdizzy-face
p201
aV\U0001f635
p202
aa(lp203
Vpouting-face
p204
aV\U0001f621
p205
aa(lp206
Vangry-face
p207
aV\U0001f620
p208
aa(lp209
Vserious-face-with-symbols-covering-mouth
p210
aV\U0001f92c
p211
aa(lp212
Vface-with-medical-mask
p213
aV\U0001f637
p214
aa(lp215
Vface-with-thermometer
p216
aV\U0001f912
p217
aa(lp218
Vface-with-head-bandage
p219
aV\U0001f915
p220
aa(lp221
Vnauseated-face
p222
aV\U0001f922
p223
aa(lp224
Vface-with-open-mouth-vomiting
p225
aV\U0001f92e
p226
aa(lp227
Vsneezing-face
p228
aV\U0001f927
p229
aa(lp230
Vsmiling-face-with-halo
p231
aV\U0001f607
p232
aa(lp233
Vface-with-cowboy-hat
p234
aV\U0001f920
p235
aa(lp236
Vclown-face
p237
aV\U0001f921
p238
aa(lp239
Vlying-face
p240
aV\U0001f925
p241
aa(lp242
Vface-with-finger-covering-closed-lips
p243
aV\U0001f92b
p244
aa(lp245
Vsmiling-face-with-smiling-eyes-and-hand-covering-mouth
p246
aV\U0001f92d
p247
aa(lp248
Vface-with-monocle
p249
aV\U0001f9d0
p250
aa(lp251
Vnerd-face
p252
aV\U0001f913
p253
aa(lp254
Vsmiling-face-with-horns
p255
aV\U0001f608
p256
aa(lp257
Vimp
p258
aV\U0001f47f
p259
aa(lp260
Vjapanese-ogre
p261
aV\U0001f479
p262
aa(lp263
Vjapanese-goblin
p264
aV\U0001f47a
p265
aa(lp266
Vskull
p267
aV\U0001f480
p268
aa(lp269
Vskull-and-crossbones
p270
aV\u2620\ufe0f
p271
aa(lp272
Vghost
p273
aV\U0001f47b
p274
aa(lp275
Vextraterrestrial-alien
p276
aV\U0001f47d
p277
aa(lp278
Valien-monster
p279
aV\U0001f47e
p280
aa(lp281
Vrobot-face
p282
aV\U0001f916
p283
aa(lp284
Vpile-of-poo
p285
aV\U0001f4a9
p286
aa(lp287
Vsmiling-cat-face-with-open-mouth
p288
aV\U0001f63a
p289
aa(lp290
Vgrinning-cat-face-with-smiling-eyes
p291
aV\U0001f638
p292
aa(lp293
Vcat-face-with-tears-of-joy
p294
aV\U0001f639
p295
aa(lp296
Vsmiling-cat-face-with-heart-shaped-eyes
p297
aV\U0001f63b
p298
aa(lp299
Vcat-face-with-wry-smile
p300
aV\U0001f63c
p301
aa(lp302
Vkissing-cat-face-with-closed-eyes
p303
aV\U0001f63d
p304
aa(lp305
Vweary-cat-face
p306
aV\U0001f640
p307
aa(lp308
Vcrying-cat-face
p309
aV\U0001f63f
p310
aa(lp311
Vpouting-cat-face
p312
aV\U0001f63e
p313
aa(lp314
Vsee-no-evil-monkey
p315
aV\U0001f648
p316
aa(lp317
Vhear-no-evil-monkey
p318
aV\U0001f649
p319
aa(lp320
Vspeak-no-evil-monkey
p321
aV\U0001f64a
p322
aa(lp323
Vemoji-modifier-fitzpatrick-type-1-2
p324
aV\U0001f3fb
p325
aa(lp326
Vemoji-modifier-fitzpatrick-type-3
p327
aV\U0001f3fc
p328
aa(lp329
Vemoji-modifier-fitzpatrick-type-4
p330
aV\U0001f3fd
p331
aa(lp332
Vemoji-modifier-fitzpatrick-type-5
p333
aV\U0001f3fe
p334
aa(lp335
Vemoji-modifier-fitzpatrick-type-6
p336
aV\U0001f3ff
p337
aa(lp338
Vbaby
p339
aV\U0001f476
p340
aa(lp341
Vbaby-type-1-2
p342
aV\U0001f476\U0001f3fb
p343
aa(lp344
Vbaby-type-3
p345
aV\U0001f476\U0001f3fc
p346
aa(lp347
Vbaby-type-4
p348
aV\U0001f476\U0001f3fd
p349
aa(lp350
Vbaby-type-5
p351
aV\U0001f476\U0001f3fe
p352
aa(lp353
Vbaby-type-6
p354
aV\U0001f476\U0001f3ff
p355
aa(lp356
Vchild
p357
aV\U0001f9d2
p358
aa(lp359
Vchild-light-skin-tone
p360
aV\U0001f9d2\U0001f3fb
p361
aa(lp362
Vchild-medium-light-skin-tone
p363
aV\U0001f9d2\U0001f3fc
p364
aa(lp365
Vchild-medium-skin-tone
p366
aV\U0001f9d2\U0001f3fd
p367
aa(lp368
Vchild-medium-dark-skin-tone
p369
aV\U0001f9d2\U0001f3fe
p370
aa(lp371
Vchild-dark-skin-tone
p372
aV\U0001f9d2\U0001f3ff
p373
aa(lp374
Vboy
p375
aV\U0001f466
p376
aa(lp377
Vboy-type-1-2
p378
aV\U0001f466\U0001f3fb
p379
aa(lp380
Vboy-type-3
p381
aV\U0001f466\U0001f3fc
p382
aa(lp383
Vboy-type-4
p384
aV\U0001f466\U0001f3fd
p385
aa(lp386
Vboy-type-5
p387
aV\U0001f466\U0001f3fe
p388
aa(lp389
Vboy-type-6
p390
aV\U0001f466\U0001f3ff
p391
aa(lp392
Vgirl
p393
aV\U0001f467
p394
aa(lp395
Vgirl-type-1-2
p396
aV\U0001f467\U0001f3fb
p397
aa(lp398
Vgirl-type-3
p399
aV\U0001f467\U0001f3fc
p400
aa(lp401
Vgirl-type-4
p402
aV\U0001f467\U0001f3fd
p403
aa(lp404
Vgirl-type-5
p405
aV\U0001f467\U0001f3fe
p406
aa(lp407
Vgirl-type-6
p408
aV\U0001f467\U0001f3ff
p409
aa(lp410
Vadult
p411
aV\U0001f9d1
p412
aa(lp413
Vadult-light-skin-tone
p414
aV\U0001f9d1\U0001f3fb
p415
aa(lp416
Vadult-medium-light-skin-tone
p417
aV\U0001f9d1\U0001f3fc
p418
aa(lp419
Vadult-medium-skin-tone
p420
aV\U0001f9d1\U0001f3fd
p421
aa(lp422
Vadult-medium-dark-skin-tone
p423
aV\U0001f9d1\U0001f3fe
p424
aa(lp425
Vadult-dark-skin-tone
p426
aV\U0001f9d1\U0001f3ff
p427
aa(lp428
Vman
p429
aV\U0001f468
p430
aa(lp431
Vman-type-1-2
p432
aV\U0001f468\U0001f3fb
p433
aa(lp434
Vman-type-3
p435
aV\U0001f468\U0001f3fc
p436
aa(lp437
Vman-type-4
p438
aV\U0001f468\U0001f3fd
p439
aa(lp440
Vman-type-5
p441
aV\U0001f468\U0001f3fe
p442
aa(lp443
Vman-type-6
p444
aV\U0001f468\U0001f3ff
p445
aa(lp446
Vwoman
p447
aV\U0001f469
p448
aa(lp449
Vwoman-type-1-2
p450
aV\U0001f469\U0001f3fb
p451
aa(lp452
Vwoman-type-3
p453
aV\U0001f469\U0001f3fc
p454
aa(lp455
Vwoman-type-4
p456
aV\U0001f469\U0001f3fd
p457
aa(lp458
Vwoman-type-5
p459
aV\U0001f469\U0001f3fe
p460
aa(lp461
Vwoman-type-6
p462
aV\U0001f469\U0001f3ff
p463
aa(lp464
Volder-adult
p465
aV\U0001f9d3
p466
aa(lp467
Volder-adult-light-skin-tone
p468
aV\U0001f9d3\U0001f3fb
p469
aa(lp470
Volder-adult-medium-light-skin-tone
p471
aV\U0001f9d3\U0001f3fc
p472
aa(lp473
Volder-adult-medium-skin-tone
p474
aV\U0001f9d3\U0001f3fd
p475
aa(lp476
Volder-adult-medium-dark-skin-tone
p477
aV\U0001f9d3\U0001f3fe
p478
aa(lp479
Volder-adult-dark-skin-tone
p480
aV\U0001f9d3\U0001f3ff
p481
aa(lp482
Volder-man
p483
aV\U0001f474
p484
aa(lp485
Volder-man-type-1-2
p486
aV\U0001f474\U0001f3fb
p487
aa(lp488
Volder-man-type-3
p489
aV\U0001f474\U0001f3fc
p490
aa(lp491
Volder-man-type-4
p492
aV\U0001f474\U0001f3fd
p493
aa(lp494
Volder-man-type-5
p495
aV\U0001f474\U0001f3fe
p496
aa(lp497
Volder-man-type-6
p498
aV\U0001f474\U0001f3ff
p499
aa(lp500
Volder-woman
p501
aV\U0001f475
p502
aa(lp503
Volder-woman-type-1-2
p504
aV\U0001f475\U0001f3fb
p505
aa(lp506
Volder-woman-type-3
p507
aV\U0001f475\U0001f3fc
p508
aa(lp509
Volder-woman-type-4
p510
aV\U0001f475\U0001f3fd
p511
aa(lp512
Volder-woman-type-5
p513
aV\U0001f475\U0001f3fe
p514
aa(lp515
Volder-woman-type-6
p516
aV\U0001f475\U0001f3ff
p517
aa(lp518
Vmale-health-worker
p519
aV\U0001f468\u200d\u2695\ufe0f
p520
aa(lp521
Vmale-health-worker-type-1-2
p522
aV\U0001f468\U0001f3fb\u200d\u2695\ufe0f
p523
aa(lp524
Vmale-health-worker-type-3
p525
aV\U0001f468\U0001f3fc\u200d\u2695\ufe0f
p526
aa(lp527
Vmale-health-worker-type-4
p528
aV\U0001f468\U0001f3fd\u200d\u2695\ufe0f
p529
aa(lp530
Vmale-health-worker-type-5
p531
aV\U0001f468\U0001f3fe\u200d\u2695\ufe0f
p532
aa(lp533
Vmale-health-worker-type-6
p534
aV\U0001f468\U0001f3ff\u200d\u2695\ufe0f
p535
aa(lp536
Vfemale-health-worker
p537
aV\U0001f469\u200d\u2695\ufe0f
p538
aa(lp539
Vfemale-health-worker-type-1-2
p540
aV\U0001f469\U0001f3fb\u200d\u2695\ufe0f
p541
aa(lp542
Vfemale-health-worker-type-3
p543
aV\U0001f469\U0001f3fc\u200d\u2695\ufe0f
p544
aa(lp545
Vfemale-health-worker-type-4
p546
aV\U0001f469\U0001f3fd\u200d\u2695\ufe0f
p547
aa(lp548
Vfemale-health-worker-type-5
p549
aV\U0001f469\U0001f3fe\u200d\u2695\ufe0f
p550
aa(lp551
Vfemale-health-worker-type-6
p552
aV\U0001f469\U0001f3ff\u200d\u2695\ufe0f
p553
aa(lp554
Vmale-student
p555
aV\U0001f468\u200d\U0001f393
p556
aa(lp557
Vmale-student-type-1-2
p558
aV\U0001f468\U0001f3fb\u200d\U0001f393
p559
aa(lp560
Vmale-student-type-3
p561
aV\U0001f468\U0001f3fc\u200d\U0001f393
p562
aa(lp563
Vmale-student-type-4
p564
aV\U0001f468\U0001f3fd\u200d\U0001f393
p565
aa(lp566
Vmale-student-type-5
p567
aV\U0001f468\U0001f3fe\u200d\U0001f393
p568
aa(lp569
Vmale-student-type-6
p570
aV\U0001f468\U0001f3ff\u200d\U0001f393
p571
aa(lp572
Vfemale-student
p573
aV\U0001f469\u200d\U0001f393
p574
aa(lp575
Vfemale-student-type-1-2
p576
aV\U0001f469\U0001f3fb\u200d\U0001f393
p577
aa(lp578
Vfemale-student-type-3
p579
aV\U0001f469\U0001f3fc\u200d\U0001f393
p580
aa(lp581
Vfemale-student-type-4
p582
aV\U0001f469\U0001f3fd\u200d\U0001f393
p583
aa(lp584
Vfemale-student-type-5
p585
aV\U0001f469\U0001f3fe\u200d\U0001f393
p586
aa(lp587
Vfemale-student-type-6
p588
aV\U0001f469\U0001f3ff\u200d\U0001f393
p589
aa(lp590
Vmale-teacher
p591
aV\U0001f468\u200d\U0001f3eb
p592
aa(lp593
Vmale-teacher-type-1-2
p594
aV\U0001f468\U0001f3fb\u200d\U0001f3eb
p595
aa(lp596
Vmale-teacher-type-3
p597
aV\U0001f468\U0001f3fc\u200d\U0001f3eb
p598
aa(lp599
Vmale-teacher-type-4
p600
aV\U0001f468\U0001f3fd\u200d\U0001f3eb
p601
aa(lp602
Vmale-teacher-type-5
p603
aV\U0001f468\U0001f3fe\u200d\U0001f3eb
p604
aa(lp605
Vmale-teacher-type-6
p606
aV\U0001f468\U0001f3ff\u200d\U0001f3eb
p607
aa(lp608
Vfemale-teacher
p609
aV\U0001f469\u200d\U0001f3eb
p610
aa(lp611
Vfemale-teacher-type-1-2
p612
aV\U0001f469\U0001f3fb\u200d\U0001f3eb
p613
aa(lp614
Vfemale-teacher-type-3
p615
aV\U0001f469\U0001f3fc\u200d\U0001f3eb
p616
aa(lp617
Vfemale-teacher-type-4
p618
aV\U0001f469\U0001f3fd\u200d\U0001f3eb
p619
aa(lp620
Vfemale-teacher-type-5
p621
aV\U0001f469\U0001f3fe\u200d\U0001f3eb
p622
aa(lp623
Vfemale-teacher-type-6
p624
aV\U0001f469\U0001f3ff\u200d\U0001f3eb
p625
aa(lp626
Vmale-judge
p627
aV\U0001f468\u200d\u2696\ufe0f
p628
aa(lp629
Vmale-judge-type-1-2
p630
aV\U0001f468\U0001f3fb\u200d\u2696\ufe0f
p631
aa(lp632
Vmale-judge-type-3
p633
aV\U0001f468\U0001f3fc\u200d\u2696\ufe0f
p634
aa(lp635
Vmale-judge-type-4
p636
aV\U0001f468\U0001f3fd\u200d\u2696\ufe0f
p637
aa(lp638
Vmale-judge-type-5
p639
aV\U0001f468\U0001f3fe\u200d\u2696\ufe0f
p640
aa(lp641
Vmale-judge-type-6
p642
aV\U0001f468\U0001f3ff\u200d\u2696\ufe0f
p643
aa(lp644
Vfemale-judge
p645
aV\U0001f469\u200d\u2696\ufe0f
p646
aa(lp647
Vfemale-judge-type-1-2
p648
aV\U0001f469\U0001f3fb\u200d\u2696\ufe0f
p649
aa(lp650
Vfemale-judge-type-3
p651
aV\U0001f469\U0001f3fc\u200d\u2696\ufe0f
p652
aa(lp653
Vfemale-judge-type-4
p654
aV\U0001f469\U0001f3fd\u200d\u2696\ufe0f
p655
aa(lp656
Vfemale-judge-type-5
p657
aV\U0001f469\U0001f3fe\u200d\u2696\ufe0f
p658
aa(lp659
Vfemale-judge-type-6
p660
aV\U0001f469\U0001f3ff\u200d\u2696\ufe0f
p661
aa(lp662
Vmale-farmer
p663
aV\U0001f468\u200d\U0001f33e
p664
aa(lp665
Vmale-farmer-type-1-2
p666
aV\U0001f468\U0001f3fb\u200d\U0001f33e
p667
aa(lp668
Vmale-farmer-type-3
p669
aV\U0001f468\U0001f3fc\u200d\U0001f33e
p670
aa(lp671
Vmale-farmer-type-4
p672
aV\U0001f468\U0001f3fd\u200d\U0001f33e
p673
aa(lp674
Vmale-farmer-type-5
p675
aV\U0001f468\U0001f3fe\u200d\U0001f33e
p676
aa(lp677
Vmale-farmer-type-6
p678
aV\U0001f468\U0001f3ff\u200d\U0001f33e
p679
aa(lp680
Vfemale-farmer
p681
aV\U0001f469\u200d\U0001f33e
p682
aa(lp683
Vfemale-farmer-type-1-2
p684
aV\U0001f469\U0001f3fb\u200d\U0001f33e
p685
aa(lp686
Vfemale-farmer-type-3
p687
aV\U0001f469\U0001f3fc\u200d\U0001f33e
p688
aa(lp689
Vfemale-farmer-type-4
p690
aV\U0001f469\U0001f3fd\u200d\U0001f33e
p691
aa(lp692
Vfemale-farmer-type-5
p693
aV\U0001f469\U0001f3fe\u200d\U0001f33e
p694
aa(lp695
Vfemale-farmer-type-6
p696
aV\U0001f469\U0001f3ff\u200d\U0001f33e
p697
aa(lp698
Vmale-cook
p699
aV\U0001f468\u200d\U0001f373
p700
aa(lp701
Vmale-cook-type-1-2
p702
aV\U0001f468\U0001f3fb\u200d\U0001f373
p703
aa(lp704
Vmale-cook-type-3
p705
aV\U0001f468\U0001f3fc\u200d\U0001f373
p706
aa(lp707
Vmale-cook-type-4
p708
aV\U0001f468\U0001f3fd\u200d\U0001f373
p709
aa(lp710
Vmale-cook-type-5
p711
aV\U0001f468\U0001f3fe\u200d\U0001f373
p712
aa(lp713
Vmale-cook-type-6
p714
aV\U0001f468\U0001f3ff\u200d\U0001f373
p715
aa(lp716
Vfemale-cook
p717
aV\U0001f469\u200d\U0001f373
p718
aa(lp719
Vfemale-cook-type-1-2
p720
aV\U0001f469\U0001f3fb\u200d\U0001f373
p721
aa(lp722
Vfemale-cook-type-3
p723
aV\U0001f469\U0001f3fc\u200d\U0001f373
p724
aa(lp725
Vfemale-cook-type-4
p726
aV\U0001f469\U0001f3fd\u200d\U0001f373
p727
aa(lp728
Vfemale-cook-type-5
p729
aV\U0001f469\U0001f3fe\u200d\U0001f373
p730
aa(lp731
Vfemale-cook-type-6
p732
aV\U0001f469\U0001f3ff\u200d\U0001f373
p733
aa(lp734
Vmale-mechanic
p735
aV\U0001f468\u200d\U0001f527
p736
aa(lp737
Vmale-mechanic-type-1-2
p738
aV\U0001f468\U0001f3fb\u200d\U0001f527
p739
aa(lp740
Vmale-mechanic-type-3
p741
aV\U0001f468\U0001f3fc\u200d\U0001f527
p742
aa(lp743
Vmale-mechanic-type-4
p744
aV\U0001f468\U0001f3fd\u200d\U0001f527
p745
aa(lp746
Vmale-mechanic-type-5
p747
aV\U0001f468\U0001f3fe\u200d\U0001f527
p748
aa(lp749
Vmale-mechanic-type-6
p750
aV\U0001f468\U0001f3ff\u200d\U0001f527
p751
aa(lp752
Vfemale-mechanic
p753
aV\U0001f469\u200d\U0001f527
p754
aa(lp755
Vfemale-mechanic-type-1-2
p756
aV\U0001f469\U0001f3fb\u200d\U0001f527
p757
aa(lp758
Vfemale-mechanic-type-3
p759
aV\U0001f469\U0001f3fc\u200d\U0001f527
p760
aa(lp761
Vfemale-mechanic-type-4
p762
aV\U0001f469\U0001f3fd\u200d\U0001f527
p763
aa(lp764
Vfemale-mechanic-type-5
p765
aV\U0001f469\U0001f3fe\u200d\U0001f527
p766
aa(lp767
Vfemale-mechanic-type-6
p768
aV\U0001f469\U0001f3ff\u200d\U0001f527
p769
aa(lp770
Vmale-factory-worker
p771
aV\U0001f468\u200d\U0001f3ed
p772
aa(lp773
Vmale-factory-worker-type-1-2
p774
aV\U0001f468\U0001f3fb\u200d\U0001f3ed
p775
aa(lp776
Vmale-factory-worker-type-3
p777
aV\U0001f468\U0001f3fc\u200d\U0001f3ed
p778
aa(lp779
Vmale-factory-worker-type-4
p780
aV\U0001f468\U0001f3fd\u200d\U0001f3ed
p781
aa(lp782
Vmale-factory-worker-type-5
p783
aV\U0001f468\U0001f3fe\u200d\U0001f3ed
p784
aa(lp785
Vmale-factory-worker-type-6
p786
aV\U0001f468\U0001f3ff\u200d\U0001f3ed
p787
aa(lp788
Vfemale-factory-worker
p789
aV\U0001f469\u200d\U0001f3ed
p790
aa(lp791
Vfemale-factory-worker-type-1-2
p792
aV\U0001f469\U0001f3fb\u200d\U0001f3ed
p793
aa(lp794
Vfemale-factory-worker-type-3
p795
aV\U0001f469\U0001f3fc\u200d\U0001f3ed
p796
aa(lp797
Vfemale-factory-worker-type-4
p798
aV\U0001f469\U0001f3fd\u200d\U0001f3ed
p799
aa(lp800
Vfemale-factory-worker-type-5
p801
aV\U0001f469\U0001f3fe\u200d\U0001f3ed
p802
aa(lp803
Vfemale-factory-worker-type-6
p804
aV\U0001f469\U0001f3ff\u200d\U0001f3ed
p805
aa(lp806
Vmale-office-worker
p807
aV\U0001f468\u200d\U0001f4bc
p808
aa(lp809
Vmale-office-worker-type-1-2
p810
aV\U0001f468\U0001f3fb\u200d\U0001f4bc
p811
aa(lp812
Vmale-office-worker-type-3
p813
aV\U0001f468\U0001f3fc\u200d\U0001f4bc
p814
aa(lp815
Vmale-office-worker-type-4
p816
aV\U0001f468\U0001f3fd\u200d\U0001f4bc
p817
aa(lp818
Vmale-office-worker-type-5
p819
aV\U0001f468\U0001f3fe\u200d\U0001f4bc
p820
aa(lp821
Vmale-office-worker-type-6
p822
aV\U0001f468\U0001f3ff\u200d\U0001f4bc
p823
aa(lp824
Vfemale-office-worker
p825
aV\U0001f469\u200d\U0001f4bc
p826
aa(lp827
Vfemale-office-worker-type-1-2
p828
aV\U0001f469\U0001f3fb\u200d\U0001f4bc
p829
aa(lp830
Vfemale-office-worker-type-3
p831
aV\U0001f469\U0001f3fc\u200d\U0001f4bc
p832
aa(lp833
Vfemale-office-worker-type-4
p834
aV\U0001f469\U0001f3fd\u200d\U0001f4bc
p835
aa(lp836
Vfemale-office-worker-type-5
p837
aV\U0001f469\U0001f3fe\u200d\U0001f4bc
p838
aa(lp839
Vfemale-office-worker-type-6
p840
aV\U0001f469\U0001f3ff\u200d\U0001f4bc
p841
aa(lp842
Vmale-scientist
p843
aV\U0001f468\u200d\U0001f52c
p844
aa(lp845
Vmale-scientist-type-1-2
p846
aV\U0001f468\U0001f3fb\u200d\U0001f52c
p847
aa(lp848
Vmale-scientist-type-3
p849
aV\U0001f468\U0001f3fc\u200d\U0001f52c
p850
aa(lp851
Vmale-scientist-type-4
p852
aV\U0001f468\U0001f3fd\u200d\U0001f52c
p853
aa(lp854
Vmale-scientist-type-5
p855
aV\U0001f468\U0001f3fe\u200d\U0001f52c
p856
aa(lp857
Vmale-scientist-type-6
p858
aV\U0001f468\U0001f3ff\u200d\U0001f52c
p859
aa(lp860
Vfemale-scientist
p861
aV\U0001f469\u200d\U0001f52c
p862
aa(lp863
Vfemale-scientist-type-1-2
p864
aV\U0001f469\U0001f3fb\u200d\U0001f52c
p865
aa(lp866
Vfemale-scientist-type-3
p867
aV\U0001f469\U0001f3fc\u200d\U0001f52c
p868
aa(lp869
Vfemale-scientist-type-4
p870
aV\U0001f469\U0001f3fd\u200d\U0001f52c
p871
aa(lp872
Vfemale-scientist-type-5
p873
aV\U0001f469\U0001f3fe\u200d\U0001f52c
p874
aa(lp875
Vfemale-scientist-type-6
p876
aV\U0001f469\U0001f3ff\u200d\U0001f52c
p877
aa(lp878
Vmale-technologist
p879
aV\U0001f468\u200d\U0001f4bb
p880
aa(lp881
Vmale-technologist-type-1-2
p882
aV\U0001f468\U0001f3fb\u200d\U0001f4bb
p883
aa(lp884
Vmale-technologist-type-3
p885
aV\U0001f468\U0001f3fc\u200d\U0001f4bb
p886
aa(lp887
Vmale-technologist-type-4
p888
aV\U0001f468\U0001f3fd\u200d\U0001f4bb
p889
aa(lp890
Vmale-technologist-type-5
p891
aV\U0001f468\U0001f3fe\u200d\U0001f4bb
p892
aa(lp893
Vmale-technologist-type-6
p894
aV\U0001f468\U0001f3ff\u200d\U0001f4bb
p895
aa(lp896
Vfemale-technologist
p897
aV\U0001f469\u200d\U0001f4bb
p898
aa(lp899
Vfemale-technologist-type-1-2
p900
aV\U0001f469\U0001f3fb\u200d\U0001f4bb
p901
aa(lp902
Vfemale-technologist-type-3
p903
aV\U0001f469\U0001f3fc\u200d\U0001f4bb
p904
aa(lp905
Vfemale-technologist-type-4
p906
aV\U0001f469\U0001f3fd\u200d\U0001f4bb
p907
aa(lp908
Vfemale-technologist-type-5
p909
aV\U0001f469\U0001f3fe\u200d\U0001f4bb
p910
aa(lp911
Vfemale-technologist-type-6
p912
aV\U0001f469\U0001f3ff\u200d\U0001f4bb
p913
aa(lp914
Vmale-singer
p915
aV\U0001f468\u200d\U0001f3a4
p916
aa(lp917
Vmale-singer-type-1-2
p918
aV\U0001f468\U0001f3fb\u200d\U0001f3a4
p919
aa(lp920
Vmale-singer-type-3
p921
aV\U0001f468\U0001f3fc\u200d\U0001f3a4
p922
aa(lp923
Vmale-singer-type-4
p924
aV\U0001f468\U0001f3fd\u200d\U0001f3a4
p925
aa(lp926
Vmale-singer-type-5
p927
aV\U0001f468\U0001f3fe\u200d\U0001f3a4
p928
aa(lp929
Vmale-singer-type-6
p930
aV\U0001f468\U0001f3ff\u200d\U0001f3a4
p931
aa(lp932
Vfemale-singer
p933
aV\U0001f469\u200d\U0001f3a4
p934
aa(lp935
Vfemale-singer-type-1-2
p936
aV\U0001f469\U0001f3fb\u200d\U0001f3a4
p937
aa(lp938
Vfemale-singer-type-3
p939
aV\U0001f469\U0001f3fc\u200d\U0001f3a4
p940
aa(lp941
Vfemale-singer-type-4
p942
aV\U0001f469\U0001f3fd\u200d\U0001f3a4
p943
aa(lp944
Vfemale-singer-type-5
p945
aV\U0001f469\U0001f3fe\u200d\U0001f3a4
p946
aa(lp947
Vfemale-singer-type-6
p948
aV\U0001f469\U0001f3ff\u200d\U0001f3a4
p949
aa(lp950
Vmale-artist
p951
aV\U0001f468\u200d\U0001f3a8
p952
aa(lp953
Vmale-artist-type-1-2
p954
aV\U0001f468\U0001f3fb\u200d\U0001f3a8
p955
aa(lp956
Vmale-artist-type-3
p957
aV\U0001f468\U0001f3fc\u200d\U0001f3a8
p958
aa(lp959
Vmale-artist-type-4
p960
aV\U0001f468\U0001f3fd\u200d\U0001f3a8
p961
aa(lp962
Vmale-artist-type-5
p963
aV\U0001f468\U0001f3fe\u200d\U0001f3a8
p964
aa(lp965
Vmale-artist-type-6
p966
aV\U0001f468\U0001f3ff\u200d\U0001f3a8
p967
aa(lp968
Vfemale-artist
p969
aV\U0001f469\u200d\U0001f3a8
p970
aa(lp971
Vfemale-artist-type-1-2
p972
aV\U0001f469\U0001f3fb\u200d\U0001f3a8
p973
aa(lp974
Vfemale-artist-type-3
p975
aV\U0001f469\U0001f3fc\u200d\U0001f3a8
p976
aa(lp977
Vfemale-artist-type-4
p978
aV\U0001f469\U0001f3fd\u200d\U0001f3a8
p979
aa(lp980
Vfemale-artist-type-5
p981
aV\U0001f469\U0001f3fe\u200d\U0001f3a8
p982
aa(lp983
Vfemale-artist-type-6
p984
aV\U0001f469\U0001f3ff\u200d\U0001f3a8
p985
aa(lp986
Vmale-pilot
p987
aV\U0001f468\u200d\u2708\ufe0f
p988
aa(lp989
Vmale-pilot-type-1-2
p990
aV\U0001f468\U0001f3fb\u200d\u2708\ufe0f
p991
aa(lp992
Vmale-pilot-type-3
p993
aV\U0001f468\U0001f3fc\u200d\u2708\ufe0f
p994
aa(lp995
Vmale-pilot-type-4
p996
aV\U0001f468\U0001f3fd\u200d\u2708\ufe0f
p997
aa(lp998
Vmale-pilot-type-5
p999
aV\U0001f468\U0001f3fe\u200d\u2708\ufe0f
p1000
aa(lp1001
Vmale-pilot-type-6
p1002
aV\U0001f468\U0001f3ff\u200d\u2708\ufe0f
p1003
aa(lp1004
Vfemale-pilot
p1005
aV\U0001f469\u200d\u2708\ufe0f
p1006
aa(lp1007
Vfemale-pilot-type-1-2
p1008
aV\U0001f469\U0001f3fb\u200d\u2708\ufe0f
p1009
aa(lp1010
Vfemale-pilot-type-3
p1011
aV\U0001f469\U0001f3fc\u200d\u2708\ufe0f
p1012
aa(lp1013
Vfemale-pilot-type-4
p1014
aV\U0001f469\U0001f3fd\u200d\u2708\ufe0f
p1015
aa(lp1016
Vfemale-pilot-type-5
p1017
aV\U0001f469\U0001f3fe\u200d\u2708\ufe0f
p1018
aa(lp1019
Vfemale-pilot-type-6
p1020
aV\U0001f469\U0001f3ff\u200d\u2708\ufe0f
p1021
aa(lp1022
Vmale-astronaut
p1023
aV\U0001f468\u200d\U0001f680
p1024
aa(lp1025
Vmale-astronaut-type-1-2
p1026
aV\U0001f468\U0001f3fb\u200d\U0001f680
p1027
aa(lp1028
Vmale-astronaut-type-3
p1029
aV\U0001f468\U0001f3fc\u200d\U0001f680
p1030
aa(lp1031
Vmale-astronaut-type-4
p1032
aV\U0001f468\U0001f3fd\u200d\U0001f680
p1033
aa(lp1034
Vmale-astronaut-type-5
p1035
aV\U0001f468\U0001f3fe\u200d\U0001f680
p1036
aa(lp1037
Vmale-astronaut-type-6
p1038
aV\U0001f468\U0001f3ff\u200d\U0001f680
p1039
aa(lp1040
Vfemale-astronaut
p1041
aV\U0001f469\u200d\U0001f680
p1042
aa(lp1043
Vfemale-astronaut-type-1-2
p1044
aV\U0001f469\U0001f3fb\u200d\U0001f680
p1045
aa(lp1046
Vfemale-astronaut-type-3
p1047
aV\U0001f469\U0001f3fc\u200d\U0001f680
p1048
aa(lp1049
Vfemale-astronaut-type-4
p1050
aV\U0001f469\U0001f3fd\u200d\U0001f680
p1051
aa(lp1052
Vfemale-astronaut-type-5
p1053
aV\U0001f469\U0001f3fe\u200d\U0001f680
p1054
aa(lp1055
Vfemale-astronaut-type-6
p1056
aV\U0001f469\U0001f3ff\u200d\U0001f680
p1057
aa(lp1058
Vmale-firefighter
p1059
aV\U0001f468\u200d\U0001f692
p1060
aa(lp1061
Vmale-firefighter-type-1-2
p1062
aV\U0001f468\U0001f3fb\u200d\U0001f692
p1063
aa(lp1064
Vmale-firefighter-type-3
p1065
aV\U0001f468\U0001f3fc\u200d\U0001f692
p1066
aa(lp1067
Vmale-firefighter-type-4
p1068
aV\U0001f468\U0001f3fd\u200d\U0001f692
p1069
aa(lp1070
Vmale-firefighter-type-5
p1071
aV\U0001f468\U0001f3fe\u200d\U0001f692
p1072
aa(lp1073
Vmale-firefighter-type-6
p1074
aV\U0001f468\U0001f3ff\u200d\U0001f692
p1075
aa(lp1076
Vfemale-firefighter
p1077
aV\U0001f469\u200d\U0001f692
p1078
aa(lp1079
Vfemale-firefighter-type-1-2
p1080
aV\U0001f469\U0001f3fb\u200d\U0001f692
p1081
aa(lp1082
Vfemale-firefighter-type-3
p1083
aV\U0001f469\U0001f3fc\u200d\U0001f692
p1084
aa(lp1085
Vfemale-firefighter-type-4
p1086
aV\U0001f469\U0001f3fd\u200d\U0001f692
p1087
aa(lp1088
Vfemale-firefighter-type-5
p1089
aV\U0001f469\U0001f3fe\u200d\U0001f692
p1090
aa(lp1091
Vfemale-firefighter-type-6
p1092
aV\U0001f469\U0001f3ff\u200d\U0001f692
p1093
aa(lp1094
Vpolice-officer
p1095
aV\U0001f46e
p1096
aa(lp1097
Vpolice-officer-type-1-2
p1098
aV\U0001f46e\U0001f3fb
p1099
aa(lp1100
Vpolice-officer-type-3
p1101
aV\U0001f46e\U0001f3fc
p1102
aa(lp1103
Vpolice-officer-type-4
p1104
aV\U0001f46e\U0001f3fd
p1105
aa(lp1106
Vpolice-officer-type-5
p1107
aV\U0001f46e\U0001f3fe
p1108
aa(lp1109
Vpolice-officer-type-6
p1110
aV\U0001f46e\U0001f3ff
p1111
aa(lp1112
Vmale-police-officer
p1113
aV\U0001f46e\u200d\u2642\ufe0f
p1114
aa(lp1115
Vmale-police-officer-type-1-2
p1116
aV\U0001f46e\U0001f3fb\u200d\u2642\ufe0f
p1117
aa(lp1118
Vmale-police-officer-type-3
p1119
aV\U0001f46e\U0001f3fc\u200d\u2642\ufe0f
p1120
aa(lp1121
Vmale-police-officer-type-4
p1122
aV\U0001f46e\U0001f3fd\u200d\u2642\ufe0f
p1123
aa(lp1124
Vmale-police-officer-type-5
p1125
aV\U0001f46e\U0001f3fe\u200d\u2642\ufe0f
p1126
aa(lp1127
Vmale-police-officer-type-6
p1128
aV\U0001f46e\U0001f3ff\u200d\u2642\ufe0f
p1129
aa(lp1130
Vfemale-police-officer
p1131
aV\U0001f46e\u200d\u2640\ufe0f
p1132
aa(lp1133
Vfemale-police-officer-type-1-2
p1134
aV\U0001f46e\U0001f3fb\u200d\u2640\ufe0f
p1135
aa(lp1136
Vfemale-police-officer-type-3
p1137
aV\U0001f46e\U0001f3fc\u200d\u2640\ufe0f
p1138
aa(lp1139
Vfemale-police-officer-type-4
p1140
aV\U0001f46e\U0001f3fd\u200d\u2640\ufe0f
p1141
aa(lp1142
Vfemale-police-officer-type-5
p1143
aV\U0001f46e\U0001f3fe\u200d\u2640\ufe0f
p1144
aa(lp1145
Vfemale-police-officer-type-6
p1146
aV\U0001f46e\U0001f3ff\u200d\u2640\ufe0f
p1147
aa(lp1148
Vsleuth-or-spy
p1149
aV\U0001f575\ufe0f
p1150
aa(lp1151
Vsleuth-or-spy-type-1-2
p1152
aV\U0001f575\U0001f3fb
p1153
aa(lp1154
Vsleuth-or-spy-type-3
p1155
aV\U0001f575\U0001f3fc
p1156
aa(lp1157
Vsleuth-or-spy-type-4
p1158
aV\U0001f575\U0001f3fd
p1159
aa(lp1160
Vsleuth-or-spy-type-5
p1161
aV\U0001f575\U0001f3fe
p1162
aa(lp1163
Vsleuth-or-spy-type-6
p1164
aV\U0001f575\U0001f3ff
p1165
aa(lp1166
Vmale-sleuth
p1167
aV\U0001f575\ufe0f\u200d\u2642\ufe0f
p1168
aa(lp1169
Vmale-sleuth-type-1-2
p1170
aV\U0001f575\U0001f3fb\u200d\u2642\ufe0f
p1171
aa(lp1172
Vmale-sleuth-type-3
p1173
aV\U0001f575\U0001f3fc\u200d\u2642\ufe0f
p1174
aa(lp1175
Vmale-sleuth-type-4
p1176
aV\U0001f575\U0001f3fd\u200d\u2642\ufe0f
p1177
aa(lp1178
Vmale-sleuth-type-5
p1179
aV\U0001f575\U0001f3fe\u200d\u2642\ufe0f
p1180
aa(lp1181
Vmale-sleuth-type-6
p1182
aV\U0001f575\U0001f3ff\u200d\u2642\ufe0f
p1183
aa(lp1184
Vfemale-sleuth
p1185
aV\U0001f575\ufe0f\u200d\u2640\ufe0f
p1186
aa(lp1187
Vfemale-sleuth-type-1-2
p1188
aV\U0001f575\U0001f3fb\u200d\u2640\ufe0f
p1189
aa(lp1190
Vfemale-sleuth-type-3
p1191
aV\U0001f575\U0001f3fc\u200d\u2640\ufe0f
p1192
aa(lp1193
Vfemale-sleuth-type-4
p1194
aV\U0001f575\U0001f3fd\u200d\u2640\ufe0f
p1195
aa(lp1196
Vfemale-sleuth-type-5
p1197
aV\U0001f575\U0001f3fe\u200d\u2640\ufe0f
p1198
aa(lp1199
Vfemale-sleuth-type-6
p1200
aV\U0001f575\U0001f3ff\u200d\u2640\ufe0f
p1201
aa(lp1202
Vguardsman
p1203
aV\U0001f482
p1204
aa(lp1205
Vguardsman-type-1-2
p1206
aV\U0001f482\U0001f3fb
p1207
aa(lp1208
Vguardsman-type-3
p1209
aV\U0001f482\U0001f3fc
p1210
aa(lp1211
Vguardsman-type-4
p1212
aV\U0001f482\U0001f3fd
p1213
aa(lp1214
Vguardsman-type-5
p1215
aV\U0001f482\U0001f3fe
p1216
aa(lp1217
Vguardsman-type-6
p1218
aV\U0001f482\U0001f3ff
p1219
aa(lp1220
Vmale-guard
p1221
aV\U0001f482\u200d\u2642\ufe0f
p1222
aa(lp1223
Vmale-guard-type-1-2
p1224
aV\U0001f482\U0001f3fb\u200d\u2642\ufe0f
p1225
aa(lp1226
Vmale-guard-type-3
p1227
aV\U0001f482\U0001f3fc\u200d\u2642\ufe0f
p1228
aa(lp1229
Vmale-guard-type-4
p1230
aV\U0001f482\U0001f3fd\u200d\u2642\ufe0f
p1231
aa(lp1232
Vmale-guard-type-5
p1233
aV\U0001f482\U0001f3fe\u200d\u2642\ufe0f
p1234
aa(lp1235
Vmale-guard-type-6
p1236
aV\U0001f482\U0001f3ff\u200d\u2642\ufe0f
p1237
aa(lp1238
Vfemale-guard
p1239
aV\U0001f482\u200d\u2640\ufe0f
p1240
aa(lp1241
Vfemale-guard-type-1-2
p1242
aV\U0001f482\U0001f3fb\u200d\u2640\ufe0f
p1243
aa(lp1244
Vfemale-guard-type-3
p1245
aV\U0001f482\U0001f3fc\u200d\u2640\ufe0f
p1246
aa(lp1247
Vfemale-guard-type-4
p1248
aV\U0001f482\U0001f3fd\u200d\u2640\ufe0f
p1249
aa(lp1250
Vfemale-guard-type-5
p1251
aV\U0001f482\U0001f3fe\u200d\u2640\ufe0f
p1252
aa(lp1253
Vfemale-guard-type-6
p1254
aV\U0001f482\U0001f3ff\u200d\u2640\ufe0f
p1255
aa(lp1256
Vconstruction-worker
p1257
aV\U0001f477
p1258
aa(lp1259
Vconstruction-worker-type-1-2
p1260
aV\U0001f477\U0001f3fb
p1261
aa(lp1262
Vconstruction-worker-type-3
p1263
aV\U0001f477\U0001f3fc
p1264
aa(lp1265
Vconstruction-worker-type-4
p1266
aV\U0001f477\U0001f3fd
p1267
aa(lp1268
Vconstruction-worker-type-5
p1269
aV\U0001f477\U0001f3fe
p1270
aa(lp1271
Vconstruction-worker-type-6
p1272
aV\U0001f477\U0001f3ff
p1273
aa(lp1274
Vmale-construction-worker
p1275
aV\U0001f477\u200d\u2642\ufe0f
p1276
aa(lp1277
Vmale-construction-worker-type-1-2
p1278
aV\U0001f477\U0001f3fb\u200d\u2642\ufe0f
p1279
aa(lp1280
Vmale-construction-worker-type-3
p1281
aV\U0001f477\U0001f3fc\u200d\u2642\ufe0f
p1282
aa(lp1283
Vmale-construction-worker-type-4
p1284
aV\U0001f477\U0001f3fd\u200d\u2642\ufe0f
p1285
aa(lp1286
Vmale-construction-worker-type-5
p1287
aV\U0001f477\U0001f3fe\u200d\u2642\ufe0f
p1288
aa(lp1289
Vmale-construction-worker-type-6
p1290
aV\U0001f477\U0001f3ff\u200d\u2642\ufe0f
p1291
aa(lp1292
Vfemale-construction-worker
p1293
aV\U0001f477\u200d\u2640\ufe0f
p1294
aa(lp1295
Vfemale-construction-worker-type-1-2
p1296
aV\U0001f477\U0001f3fb\u200d\u2640\ufe0f
p1297
aa(lp1298
Vfemale-construction-worker-type-3
p1299
aV\U0001f477\U0001f3fc\u200d\u2640\ufe0f
p1300
aa(lp1301
Vfemale-construction-worker-type-4
p1302
aV\U0001f477\U0001f3fd\u200d\u2640\ufe0f
p1303
aa(lp1304
Vfemale-construction-worker-type-5
p1305
aV\U0001f477\U0001f3fe\u200d\u2640\ufe0f
p1306
aa(lp1307
Vfemale-construction-worker-type-6
p1308
aV\U0001f477\U0001f3ff\u200d\u2640\ufe0f
p1309
aa(lp1310
Vprince
p1311
aV\U0001f934
p1312
aa(lp1313
Vprince-type-1-2
p1314
aV\U0001f934\U0001f3fb
p1315
aa(lp1316
Vprince-type-3
p1317
aV\U0001f934\U0001f3fc
p1318
aa(lp1319
Vprince-type-4
p1320
aV\U0001f934\U0001f3fd
p1321
aa(lp1322
Vprince-type-5
p1323
aV\U0001f934\U0001f3fe
p1324
aa(lp1325
Vprince-type-6
p1326
aV\U0001f934\U0001f3ff
p1327
aa(lp1328
Vprincess
p1329
aV\U0001f478
p1330
aa(lp1331
Vprincess-type-1-2
p1332
aV\U0001f478\U0001f3fb
p1333
aa(lp1334
Vprincess-type-3
p1335
aV\U0001f478\U0001f3fc
p1336
aa(lp1337
Vprincess-type-4
p1338
aV\U0001f478\U0001f3fd
p1339
aa(lp1340
Vprincess-type-5
p1341
aV\U0001f478\U0001f3fe
p1342
aa(lp1343
Vprincess-type-6
p1344
aV\U0001f478\U0001f3ff
p1345
aa(lp1346
Vman-with-turban
p1347
aV\U0001f473
p1348
aa(lp1349
Vman-with-turban-type-1-2
p1350
aV\U0001f473\U0001f3fb
p1351
aa(lp1352
Vman-with-turban-type-3
p1353
aV\U0001f473\U0001f3fc
p1354
aa(lp1355
Vman-with-turban-type-4
p1356
aV\U0001f473\U0001f3fd
p1357
aa(lp1358
Vman-with-turban-type-5
p1359
aV\U0001f473\U0001f3fe
p1360
aa(lp1361
Vman-with-turban-type-6
p1362
aV\U0001f473\U0001f3ff
p1363
aa(lp1364
Vman-wearing-turban
p1365
aV\U0001f473\u200d\u2642\ufe0f
p1366
aa(lp1367
Vman-wearing-turban-type-1-2
p1368
aV\U0001f473\U0001f3fb\u200d\u2642\ufe0f
p1369
aa(lp1370
Vman-wearing-turban-type-3
p1371
aV\U0001f473\U0001f3fc\u200d\u2642\ufe0f
p1372
aa(lp1373
Vman-wearing-turban-type-4
p1374
aV\U0001f473\U0001f3fd\u200d\u2642\ufe0f
p1375
aa(lp1376
Vman-wearing-turban-type-5
p1377
aV\U0001f473\U0001f3fe\u200d\u2642\ufe0f
p1378
aa(lp1379
Vman-wearing-turban-type-6
p1380
aV\U0001f473\U0001f3ff\u200d\u2642\ufe0f
p1381
aa(lp1382
Vwoman-wearing-turban
p1383
aV\U0001f473\u200d\u2640\ufe0f
p1384
aa(lp1385
Vwoman-wearing-turban-type-1-2
p1386
aV\U0001f473\U0001f3fb\u200d\u2640\ufe0f
p1387
aa(lp1388
Vwoman-wearing-turban-type-3
p1389
aV\U0001f473\U0001f3fc\u200d\u2640\ufe0f
p1390
aa(lp1391
Vwoman-wearing-turban-type-4
p1392
aV\U0001f473\U0001f3fd\u200d\u2640\ufe0f
p1393
aa(lp1394
Vwoman-wearing-turban-type-5
p1395
aV\U0001f473\U0001f3fe\u200d\u2640\ufe0f
p1396
aa(lp1397
Vwoman-wearing-turban-type-6
p1398
aV\U0001f473\U0001f3ff\u200d\u2640\ufe0f
p1399
aa(lp1400
Vman-with-gua-pi-mao
p1401
aV\U0001f472
p1402
aa(lp1403
Vman-with-gua-pi-mao-type-1-2
p1404
aV\U0001f472\U0001f3fb
p1405
aa(lp1406
Vman-with-gua-pi-mao-type-3
p1407
aV\U0001f472\U0001f3fc
p1408
aa(lp1409
Vman-with-gua-pi-mao-type-4
p1410
aV\U0001f472\U0001f3fd
p1411
aa(lp1412
Vman-with-gua-pi-mao-type-5
p1413
aV\U0001f472\U0001f3fe
p1414
aa(lp1415
Vman-with-gua-pi-mao-type-6
p1416
aV\U0001f472\U0001f3ff
p1417
aa(lp1418
Vperson-with-headscarf
p1419
aV\U0001f9d5
p1420
aa(lp1421
Vperson-with-headscarf-light-skin-tone
p1422
aV\U0001f9d5\U0001f3fb
p1423
aa(lp1424
Vperson-with-headscarf-medium-light-skin-tone
p1425
aV\U0001f9d5\U0001f3fc
p1426
aa(lp1427
Vperson-with-headscarf-medium-skin-tone
p1428
aV\U0001f9d5\U0001f3fd
p1429
aa(lp1430
Vperson-with-headscarf-medium-dark-skin-tone
p1431
aV\U0001f9d5\U0001f3fe
p1432
aa(lp1433
Vperson-with-headscarf-dark-skin-tone
p1434
aV\U0001f9d5\U0001f3ff
p1435
aa(lp1436
Vbearded-person
p1437
aV\U0001f9d4
p1438
aa(lp1439
Vbearded-person-light-skin-tone
p1440
aV\U0001f9d4\U0001f3fb
p1441
aa(lp1442
Vbearded-person-medium-light-skin-tone
p1443
aV\U0001f9d4\U0001f3fc
p1444
aa(lp1445
Vbearded-person-medium-skin-tone
p1446
aV\U0001f9d4\U0001f3fd
p1447
aa(lp1448
Vbearded-person-medium-dark-skin-tone
p1449
aV\U0001f9d4\U0001f3fe
p1450
aa(lp1451
Vbearded-person-dark-skin-tone
p1452
aV\U0001f9d4\U0001f3ff
p1453
aa(lp1454
Vperson-with-blond-hair
p1455
aV\U0001f471
p1456
aa(lp1457
Vperson-with-blond-hair-type-1-2
p1458
aV\U0001f471\U0001f3fb
p1459
aa(lp1460
Vperson-with-blond-hair-type-3
p1461
aV\U0001f471\U0001f3fc
p1462
aa(lp1463
Vperson-with-blond-hair-type-4
p1464
aV\U0001f471\U0001f3fd
p1465
aa(lp1466
Vperson-with-blond-hair-type-5
p1467
aV\U0001f471\U0001f3fe
p1468
aa(lp1469
Vperson-with-blond-hair-type-6
p1470
aV\U0001f471\U0001f3ff
p1471
aa(lp1472
Vblond-man
p1473
aV\U0001f471\u200d\u2642\ufe0f
p1474
aa(lp1475
Vblond-man-type-1-2
p1476
aV\U0001f471\U0001f3fb\u200d\u2642\ufe0f
p1477
aa(lp1478
Vblond-man-type-3
p1479
aV\U0001f471\U0001f3fc\u200d\u2642\ufe0f
p1480
aa(lp1481
Vblond-man-type-4
p1482
aV\U0001f471\U0001f3fd\u200d\u2642\ufe0f
p1483
aa(lp1484
Vblond-man-type-5
p1485
aV\U0001f471\U0001f3fe\u200d\u2642\ufe0f
p1486
aa(lp1487
Vblond-man-type-6
p1488
aV\U0001f471\U0001f3ff\u200d\u2642\ufe0f
p1489
aa(lp1490
Vblonde-woman
p1491
aV\U0001f471\u200d\u2640\ufe0f
p1492
aa(lp1493
Vblonde-woman-type-1-2
p1494
aV\U0001f471\U0001f3fb\u200d\u2640\ufe0f
p1495
aa(lp1496
Vblonde-woman-type-3
p1497
aV\U0001f471\U0001f3fc\u200d\u2640\ufe0f
p1498
aa(lp1499
Vblonde-woman-type-4
p1500
aV\U0001f471\U0001f3fd\u200d\u2640\ufe0f
p1501
aa(lp1502
Vblonde-woman-type-5
p1503
aV\U0001f471\U0001f3fe\u200d\u2640\ufe0f
p1504
aa(lp1505
Vblonde-woman-type-6
p1506
aV\U0001f471\U0001f3ff\u200d\u2640\ufe0f
p1507
aa(lp1508
Vman-in-tuxedo
p1509
aV\U0001f935
p1510
aa(lp1511
Vman-in-tuxedo-type-1-2
p1512
aV\U0001f935\U0001f3fb
p1513
aa(lp1514
Vman-in-tuxedo-type-3
p1515
aV\U0001f935\U0001f3fc
p1516
aa(lp1517
Vman-in-tuxedo-type-4
p1518
aV\U0001f935\U0001f3fd
p1519
aa(lp1520
Vman-in-tuxedo-type-5
p1521
aV\U0001f935\U0001f3fe
p1522
aa(lp1523
Vman-in-tuxedo-type-6
p1524
aV\U0001f935\U0001f3ff
p1525
aa(lp1526
Vbride-with-veil
p1527
aV\U0001f470
p1528
aa(lp1529
Vbride-with-veil-type-1-2
p1530
aV\U0001f470\U0001f3fb
p1531
aa(lp1532
Vbride-with-veil-type-3
p1533
aV\U0001f470\U0001f3fc
p1534
aa(lp1535
Vbride-with-veil-type-4
p1536
aV\U0001f470\U0001f3fd
p1537
aa(lp1538
Vbride-with-veil-type-5
p1539
aV\U0001f470\U0001f3fe
p1540
aa(lp1541
Vbride-with-veil-type-6
p1542
aV\U0001f470\U0001f3ff
p1543
aa(lp1544
Vpregnant-woman
p1545
aV\U0001f930
p1546
aa(lp1547
Vpregnant-woman-type-1-2
p1548
aV\U0001f930\U0001f3fb
p1549
aa(lp1550
Vpregnant-woman-type-3
p1551
aV\U0001f930\U0001f3fc
p1552
aa(lp1553
Vpregnant-woman-type-4
p1554
aV\U0001f930\U0001f3fd
p1555
aa(lp1556
Vpregnant-woman-type-5
p1557
aV\U0001f930\U0001f3fe
p1558
aa(lp1559
Vpregnant-woman-type-6
p1560
aV\U0001f930\U0001f3ff
p1561
aa(lp1562
Vbreast-feeding
p1563
aV\U0001f931
p1564
aa(lp1565
Vbreast-feeding-light-skin-tone
p1566
aV\U0001f931\U0001f3fb
p1567
aa(lp1568
Vbreast-feeding-medium-light-skin-tone
p1569
aV\U0001f931\U0001f3fc
p1570
aa(lp1571
Vbreast-feeding-medium-skin-tone
p1572
aV\U0001f931\U0001f3fd
p1573
aa(lp1574
Vbreast-feeding-medium-dark-skin-tone
p1575
aV\U0001f931\U0001f3fe
p1576
aa(lp1577
Vbreast-feeding-dark-skin-tone
p1578
aV\U0001f931\U0001f3ff
p1579
aa(lp1580
Vbaby-angel
p1581
aV\U0001f47c
p1582
aa(lp1583
Vbaby-angel-type-1-2
p1584
aV\U0001f47c\U0001f3fb
p1585
aa(lp1586
Vbaby-angel-type-3
p1587
aV\U0001f47c\U0001f3fc
p1588
aa(lp1589
Vbaby-angel-type-4
p1590
aV\U0001f47c\U0001f3fd
p1591
aa(lp1592
Vbaby-angel-type-5
p1593
aV\U0001f47c\U0001f3fe
p1594
aa(lp1595
Vbaby-angel-type-6
p1596
aV\U0001f47c\U0001f3ff
p1597
aa(lp1598
Vfather-christmas
p1599
aV\U0001f385
p1600
aa(lp1601
Vfather-christmas-type-1-2
p1602
aV\U0001f385\U0001f3fb
p1603
aa(lp1604
Vfather-christmas-type-3
p1605
aV\U0001f385\U0001f3fc
p1606
aa(lp1607
Vfather-christmas-type-4
p1608
aV\U0001f385\U0001f3fd
p1609
aa(lp1610
Vfather-christmas-type-5
p1611
aV\U0001f385\U0001f3fe
p1612
aa(lp1613
Vfather-christmas-type-6
p1614
aV\U0001f385\U0001f3ff
p1615
aa(lp1616
Vmother-christmas
p1617
aV\U0001f936
p1618
aa(lp1619
Vmother-christmas-type-1-2
p1620
aV\U0001f936\U0001f3fb
p1621
aa(lp1622
Vmother-christmas-type-3
p1623
aV\U0001f936\U0001f3fc
p1624
aa(lp1625
Vmother-christmas-type-4
p1626
aV\U0001f936\U0001f3fd
p1627
aa(lp1628
Vmother-christmas-type-5
p1629
aV\U0001f936\U0001f3fe
p1630
aa(lp1631
Vmother-christmas-type-6
p1632
aV\U0001f936\U0001f3ff
p1633
aa(lp1634
Vmage
p1635
aV\U0001f9d9
p1636
aa(lp1637
Vmage-light-skin-tone
p1638
aV\U0001f9d9\U0001f3fb
p1639
aa(lp1640
Vmage-medium-light-skin-tone
p1641
aV\U0001f9d9\U0001f3fc
p1642
aa(lp1643
Vmage-medium-skin-tone
p1644
aV\U0001f9d9\U0001f3fd
p1645
aa(lp1646
Vmage-medium-dark-skin-tone
p1647
aV\U0001f9d9\U0001f3fe
p1648
aa(lp1649
Vmage-dark-skin-tone
p1650
aV\U0001f9d9\U0001f3ff
p1651
aa(lp1652
Vwoman-mage
p1653
aV\U0001f9d9\u200d\u2640\ufe0f
p1654
aa(lp1655
Vwoman-mage-light-skin-tone
p1656
aV\U0001f9d9\U0001f3fb\u200d\u2640\ufe0f
p1657
aa(lp1658
Vwoman-mage-medium-light-skin-tone
p1659
aV\U0001f9d9\U0001f3fc\u200d\u2640\ufe0f
p1660
aa(lp1661
Vwoman-mage-medium-skin-tone
p1662
aV\U0001f9d9\U0001f3fd\u200d\u2640\ufe0f
p1663
aa(lp1664
Vwoman-mage-medium-dark-skin-tone
p1665
aV\U0001f9d9\U0001f3fe\u200d\u2640\ufe0f
p1666
aa(lp1667
Vwoman-mage-dark-skin-tone
p1668
aV\U0001f9d9\U0001f3ff\u200d\u2640\ufe0f
p1669
aa(lp1670
Vman-mage
p1671
aV\U0001f9d9\u200d\u2642\ufe0f
p1672
aa(lp1673
Vman-mage-light-skin-tone
p1674
aV\U0001f9d9\U0001f3fb\u200d\u2642\ufe0f
p1675
aa(lp1676
Vman-mage-medium-light-skin-tone
p1677
aV\U0001f9d9\U0001f3fc\u200d\u2642\ufe0f
p1678
aa(lp1679
Vman-mage-medium-skin-tone
p1680
aV\U0001f9d9\U0001f3fd\u200d\u2642\ufe0f
p1681
aa(lp1682
Vman-mage-medium-dark-skin-tone
p1683
aV\U0001f9d9\U0001f3fe\u200d\u2642\ufe0f
p1684
aa(lp1685
Vman-mage-dark-skin-tone
p1686
aV\U0001f9d9\U0001f3ff\u200d\u2642\ufe0f
p1687
aa(lp1688
Vfairy
p1689
aV\U0001f9da
p1690
aa(lp1691
Vfairy-light-skin-tone
p1692
aV\U0001f9da\U0001f3fb
p1693
aa(lp1694
Vfairy-medium-light-skin-tone
p1695
aV\U0001f9da\U0001f3fc
p1696
aa(lp1697
Vfairy-medium-skin-tone
p1698
aV\U0001f9da\U0001f3fd
p1699
aa(lp1700
Vfairy-medium-dark-skin-tone
p1701
aV\U0001f9da\U0001f3fe
p1702
aa(lp1703
Vfairy-dark-skin-tone
p1704
aV\U0001f9da\U0001f3ff
p1705
aa(lp1706
Vwoman-fairy
p1707
aV\U0001f9da\u200d\u2640\ufe0f
p1708
aa(lp1709
Vwoman-fairy-light-skin-tone
p1710
aV\U0001f9da\U0001f3fb\u200d\u2640\ufe0f
p1711
aa(lp1712
Vwoman-fairy-medium-light-skin-tone
p1713
aV\U0001f9da\U0001f3fc\u200d\u2640\ufe0f
p1714
aa(lp1715
Vwoman-fairy-medium-skin-tone
p1716
aV\U0001f9da\U0001f3fd\u200d\u2640\ufe0f
p1717
aa(lp1718
Vwoman-fairy-medium-dark-skin-tone
p1719
aV\U0001f9da\U0001f3fe\u200d\u2640\ufe0f
p1720
aa(lp1721
Vwoman-fairy-dark-skin-tone
p1722
aV\U0001f9da\U0001f3ff\u200d\u2640\ufe0f
p1723
aa(lp1724
Vman-fairy
p1725
aV\U0001f9da\u200d\u2642\ufe0f
p1726
aa(lp1727
Vman-fairy-light-skin-tone
p1728
aV\U0001f9da\U0001f3fb\u200d\u2642\ufe0f
p1729
aa(lp1730
Vman-fairy-medium-light-skin-tone
p1731
aV\U0001f9da\U0001f3fc\u200d\u2642\ufe0f
p1732
aa(lp1733
Vman-fairy-medium-skin-tone
p1734
aV\U0001f9da\U0001f3fd\u200d\u2642\ufe0f
p1735
aa(lp1736
Vman-fairy-medium-dark-skin-tone
p1737
aV\U0001f9da\U0001f3fe\u200d\u2642\ufe0f
p1738
aa(lp1739
Vman-fairy-dark-skin-tone
p1740
aV\U0001f9da\U0001f3ff\u200d\u2642\ufe0f
p1741
aa(lp1742
Vvampire
p1743
aV\U0001f9db
p1744
aa(lp1745
Vvampire-light-skin-tone
p1746
aV\U0001f9db\U0001f3fb
p1747
aa(lp1748
Vvampire-medium-light-skin-tone
p1749
aV\U0001f9db\U0001f3fc
p1750
aa(lp1751
Vvampire-medium-skin-tone
p1752
aV\U0001f9db\U0001f3fd
p1753
aa(lp1754
Vvampire-medium-dark-skin-tone
p1755
aV\U0001f9db\U0001f3fe
p1756
aa(lp1757
Vvampire-dark-skin-tone
p1758
aV\U0001f9db\U0001f3ff
p1759
aa(lp1760
Vwoman-vampire
p1761
aV\U0001f9db\u200d\u2640\ufe0f
p1762
aa(lp1763
Vwoman-vampire-light-skin-tone
p1764
aV\U0001f9db\U0001f3fb\u200d\u2640\ufe0f
p1765
aa(lp1766
Vwoman-vampire-medium-light-skin-tone
p1767
aV\U0001f9db\U0001f3fc\u200d\u2640\ufe0f
p1768
aa(lp1769
Vwoman-vampire-medium-skin-tone
p1770
aV\U0001f9db\U0001f3fd\u200d\u2640\ufe0f
p1771
aa(lp1772
Vwoman-vampire-medium-dark-skin-tone
p1773
aV\U0001f9db\U0001f3fe\u200d\u2640\ufe0f
p1774
aa(lp1775
Vwoman-vampire-dark-skin-tone
p1776
aV\U0001f9db\U0001f3ff\u200d\u2640\ufe0f
p1777
aa(lp1778
Vman-vampire
p1779
aV\U0001f9db\u200d\u2642\ufe0f
p1780
aa(lp1781
Vman-vampire-light-skin-tone
p1782
aV\U0001f9db\U0001f3fb\u200d\u2642\ufe0f
p1783
aa(lp1784
Vman-vampire-medium-light-skin-tone
p1785
aV\U0001f9db\U0001f3fc\u200d\u2642\ufe0f
p1786
aa(lp1787
Vman-vampire-medium-skin-tone
p1788
aV\U0001f9db\U0001f3fd\u200d\u2642\ufe0f
p1789
aa(lp1790
Vman-vampire-medium-dark-skin-tone
p1791
aV\U0001f9db\U0001f3fe\u200d\u2642\ufe0f
p1792
aa(lp1793
Vman-vampire-dark-skin-tone
p1794
aV\U0001f9db\U0001f3ff\u200d\u2642\ufe0f
p1795
aa(lp1796
Vmerperson
p1797
aV\U0001f9dc
p1798
aa(lp1799
Vmerperson-light-skin-tone
p1800
aV\U0001f9dc\U0001f3fb
p1801
aa(lp1802
Vmerperson-medium-light-skin-tone
p1803
aV\U0001f9dc\U0001f3fc
p1804
aa(lp1805
Vmerperson-medium-skin-tone
p1806
aV\U0001f9dc\U0001f3fd
p1807
aa(lp1808
Vmerperson-medium-dark-skin-tone
p1809
aV\U0001f9dc\U0001f3fe
p1810
aa(lp1811
Vmerperson-dark-skin-tone
p1812
aV\U0001f9dc\U0001f3ff
p1813
aa(lp1814
Vmerwoman
p1815
aV\U0001f9dc\u200d\u2640\ufe0f
p1816
aa(lp1817
Vmerwoman-light-skin-tone
p1818
aV\U0001f9dc\U0001f3fb\u200d\u2640\ufe0f
p1819
aa(lp1820
Vmerwoman-medium-light-skin-tone
p1821
aV\U0001f9dc\U0001f3fc\u200d\u2640\ufe0f
p1822
aa(lp1823
Vmerwoman-medium-skin-tone
p1824
aV\U0001f9dc\U0001f3fd\u200d\u2640\ufe0f
p1825
aa(lp1826
Vmerwoman-medium-dark-skin-tone
p1827
aV\U0001f9dc\U0001f3fe\u200d\u2640\ufe0f
p1828
aa(lp1829
Vmerwoman-dark-skin-tone
p1830
aV\U0001f9dc\U0001f3ff\u200d\u2640\ufe0f
p1831
aa(lp1832
Vmerman
p1833
aV\U0001f9dc\u200d\u2642\ufe0f
p1834
aa(lp1835
Vmerman-light-skin-tone
p1836
aV\U0001f9dc\U0001f3fb\u200d\u2642\ufe0f
p1837
aa(lp1838
Vmerman-medium-light-skin-tone
p1839
aV\U0001f9dc\U0001f3fc\u200d\u2642\ufe0f
p1840
aa(lp1841
Vmerman-medium-skin-tone
p1842
aV\U0001f9dc\U0001f3fd\u200d\u2642\ufe0f
p1843
aa(lp1844
Vmerman-medium-dark-skin-tone
p1845
aV\U0001f9dc\U0001f3fe\u200d\u2642\ufe0f
p1846
aa(lp1847
Vmerman-dark-skin-tone
p1848
aV\U0001f9dc\U0001f3ff\u200d\u2642\ufe0f
p1849
aa(lp1850
Velf
p1851
aV\U0001f9dd
p1852
aa(lp1853
Velf-light-skin-tone
p1854
aV\U0001f9dd\U0001f3fb
p1855
aa(lp1856
Velf-medium-light-skin-tone
p1857
aV\U0001f9dd\U0001f3fc
p1858
aa(lp1859
Velf-medium-skin-tone
p1860
aV\U0001f9dd\U0001f3fd
p1861
aa(lp1862
Velf-medium-dark-skin-tone
p1863
aV\U0001f9dd\U0001f3fe
p1864
aa(lp1865
Velf-dark-skin-tone
p1866
aV\U0001f9dd\U0001f3ff
p1867
aa(lp1868
Vwoman-elf
p1869
aV\U0001f9dd\u200d\u2640\ufe0f
p1870
aa(lp1871
Vwoman-elf-light-skin-tone
p1872
aV\U0001f9dd\U0001f3fb\u200d\u2640\ufe0f
p1873
aa(lp1874
Vwoman-elf-medium-light-skin-tone
p1875
aV\U0001f9dd\U0001f3fc\u200d\u2640\ufe0f
p1876
aa(lp1877
Vwoman-elf-medium-skin-tone
p1878
aV\U0001f9dd\U0001f3fd\u200d\u2640\ufe0f
p1879
aa(lp1880
Vwoman-elf-medium-dark-skin-tone
p1881
aV\U0001f9dd\U0001f3fe\u200d\u2640\ufe0f
p1882
aa(lp1883
Vwoman-elf-dark-skin-tone
p1884
aV\U0001f9dd\U0001f3ff\u200d\u2640\ufe0f
p1885
aa(lp1886
Vman-elf
p1887
aV\U0001f9dd\u200d\u2642\ufe0f
p1888
aa(lp1889
Vman-elf-light-skin-tone
p1890
aV\U0001f9dd\U0001f3fb\u200d\u2642\ufe0f
p1891
aa(lp1892
Vman-elf-medium-light-skin-tone
p1893
aV\U0001f9dd\U0001f3fc\u200d\u2642\ufe0f
p1894
aa(lp1895
Vman-elf-medium-skin-tone
p1896
aV\U0001f9dd\U0001f3fd\u200d\u2642\ufe0f
p1897
aa(lp1898
Vman-elf-medium-dark-skin-tone
p1899
aV\U0001f9dd\U0001f3fe\u200d\u2642\ufe0f
p1900
aa(lp1901
Vman-elf-dark-skin-tone
p1902
aV\U0001f9dd\U0001f3ff\u200d\u2642\ufe0f
p1903
aa(lp1904
Vgenie
p1905
aV\U0001f9de
p1906
aa(lp1907
Vwoman-genie
p1908
aV\U0001f9de\u200d\u2640\ufe0f
p1909
aa(lp1910
Vman-genie
p1911
aV\U0001f9de\u200d\u2642\ufe0f
p1912
aa(lp1913
Vzombie
p1914
aV\U0001f9df
p1915
aa(lp1916
Vwoman-zombie
p1917
aV\U0001f9df\u200d\u2640\ufe0f
p1918
aa(lp1919
Vman-zombie
p1920
aV\U0001f9df\u200d\u2642\ufe0f
p1921
aa(lp1922
Vperson-frowning
p1923
aV\U0001f64d
p1924
aa(lp1925
Vperson-frowning-type-1-2
p1926
aV\U0001f64d\U0001f3fb
p1927
aa(lp1928
Vperson-frowning-type-3
p1929
aV\U0001f64d\U0001f3fc
p1930
aa(lp1931
Vperson-frowning-type-4
p1932
aV\U0001f64d\U0001f3fd
p1933
aa(lp1934
Vperson-frowning-type-5
p1935
aV\U0001f64d\U0001f3fe
p1936
aa(lp1937
Vperson-frowning-type-6
p1938
aV\U0001f64d\U0001f3ff
p1939
aa(lp1940
Vman-frowning
p1941
aV\U0001f64d\u200d\u2642\ufe0f
p1942
aa(lp1943
Vman-frowning-type-1-2
p1944
aV\U0001f64d\U0001f3fb\u200d\u2642\ufe0f
p1945
aa(lp1946
Vman-frowning-type-3
p1947
aV\U0001f64d\U0001f3fc\u200d\u2642\ufe0f
p1948
aa(lp1949
Vman-frowning-type-4
p1950
aV\U0001f64d\U0001f3fd\u200d\u2642\ufe0f
p1951
aa(lp1952
Vman-frowning-type-5
p1953
aV\U0001f64d\U0001f3fe\u200d\u2642\ufe0f
p1954
aa(lp1955
Vman-frowning-type-6
p1956
aV\U0001f64d\U0001f3ff\u200d\u2642\ufe0f
p1957
aa(lp1958
Vwoman-frowning
p1959
aV\U0001f64d\u200d\u2640\ufe0f
p1960
aa(lp1961
Vwoman-frowning-type-1-2
p1962
aV\U0001f64d\U0001f3fb\u200d\u2640\ufe0f
p1963
aa(lp1964
Vwoman-frowning-type-3
p1965
aV\U0001f64d\U0001f3fc\u200d\u2640\ufe0f
p1966
aa(lp1967
Vwoman-frowning-type-4
p1968
aV\U0001f64d\U0001f3fd\u200d\u2640\ufe0f
p1969
aa(lp1970
Vwoman-frowning-type-5
p1971
aV\U0001f64d\U0001f3fe\u200d\u2640\ufe0f
p1972
aa(lp1973
Vwoman-frowning-type-6
p1974
aV\U0001f64d\U0001f3ff\u200d\u2640\ufe0f
p1975
aa(lp1976
Vperson-with-pouting-face
p1977
aV\U0001f64e
p1978
aa(lp1979
Vperson-with-pouting-face-type-1-2
p1980
aV\U0001f64e\U0001f3fb
p1981
aa(lp1982
Vperson-with-pouting-face-type-3
p1983
aV\U0001f64e\U0001f3fc
p1984
aa(lp1985
Vperson-with-pouting-face-type-4
p1986
aV\U0001f64e\U0001f3fd
p1987
aa(lp1988
Vperson-with-pouting-face-type-5
p1989
aV\U0001f64e\U0001f3fe
p1990
aa(lp1991
Vperson-with-pouting-face-type-6
p1992
aV\U0001f64e\U0001f3ff
p1993
aa(lp1994
Vman-pouting
p1995
aV\U0001f64e\u200d\u2642\ufe0f
p1996
aa(lp1997
Vman-pouting-type-1-2
p1998
aV\U0001f64e\U0001f3fb\u200d\u2642\ufe0f
p1999
aa(lp2000
Vman-pouting-type-3
p2001
aV\U0001f64e\U0001f3fc\u200d\u2642\ufe0f
p2002
aa(lp2003
Vman-pouting-type-4
p2004
aV\U0001f64e\U0001f3fd\u200d\u2642\ufe0f
p2005
aa(lp2006
Vman-pouting-type-5
p2007
aV\U0001f64e\U0001f3fe\u200d\u2642\ufe0f
p2008
aa(lp2009
Vman-pouting-type-6
p2010
aV\U0001f64e\U0001f3ff\u200d\u2642\ufe0f
p2011
aa(lp2012
Vwoman-pouting
p2013
aV\U0001f64e\u200d\u2640\ufe0f
p2014
aa(lp2015
Vwoman-pouting-type-1-2
p2016
aV\U0001f64e\U0001f3fb\u200d\u2640\ufe0f
p2017
aa(lp2018
Vwoman-pouting-type-3
p2019
aV\U0001f64e\U0001f3fc\u200d\u2640\ufe0f
p2020
aa(lp2021
Vwoman-pouting-type-4
p2022
aV\U0001f64e\U0001f3fd\u200d\u2640\ufe0f
p2023
aa(lp2024
Vwoman-pouting-type-5
p2025
aV\U0001f64e\U0001f3fe\u200d\u2640\ufe0f
p2026
aa(lp2027
Vwoman-pouting-type-6
p2028
aV\U0001f64e\U0001f3ff\u200d\u2640\ufe0f
p2029
aa(lp2030
Vface-with-no-good-gesture
p2031
aV\U0001f645
p2032
aa(lp2033
Vface-with-no-good-gesture-type-1-2
p2034
aV\U0001f645\U0001f3fb
p2035
aa(lp2036
Vface-with-no-good-gesture-type-3
p2037
aV\U0001f645\U0001f3fc
p2038
aa(lp2039
Vface-with-no-good-gesture-type-4
p2040
aV\U0001f645\U0001f3fd
p2041
aa(lp2042
Vface-with-no-good-gesture-type-5
p2043
aV\U0001f645\U0001f3fe
p2044
aa(lp2045
Vface-with-no-good-gesture-type-6
p2046
aV\U0001f645\U0001f3ff
p2047
aa(lp2048
Vman-gesturing-not-ok
p2049
aV\U0001f645\u200d\u2642\ufe0f
p2050
aa(lp2051
Vman-gesturing-not-ok-type-1-2
p2052
aV\U0001f645\U0001f3fb\u200d\u2642\ufe0f
p2053
aa(lp2054
Vman-gesturing-not-ok-type-3
p2055
aV\U0001f645\U0001f3fc\u200d\u2642\ufe0f
p2056
aa(lp2057
Vman-gesturing-not-ok-type-4
p2058
aV\U0001f645\U0001f3fd\u200d\u2642\ufe0f
p2059
aa(lp2060
Vman-gesturing-not-ok-type-5
p2061
aV\U0001f645\U0001f3fe\u200d\u2642\ufe0f
p2062
aa(lp2063
Vman-gesturing-not-ok-type-6
p2064
aV\U0001f645\U0001f3ff\u200d\u2642\ufe0f
p2065
aa(lp2066
Vwoman-gesturing-not-ok
p2067
aV\U0001f645\u200d\u2640\ufe0f
p2068
aa(lp2069
Vwoman-gesturing-not-ok-type-1-2
p2070
aV\U0001f645\U0001f3fb\u200d\u2640\ufe0f
p2071
aa(lp2072
Vwoman-gesturing-not-ok-type-3
p2073
aV\U0001f645\U0001f3fc\u200d\u2640\ufe0f
p2074
aa(lp2075
Vwoman-gesturing-not-ok-type-4
p2076
aV\U0001f645\U0001f3fd\u200d\u2640\ufe0f
p2077
aa(lp2078
Vwoman-gesturing-not-ok-type-5
p2079
aV\U0001f645\U0001f3fe\u200d\u2640\ufe0f
p2080
aa(lp2081
Vwoman-gesturing-not-ok-type-6
p2082
aV\U0001f645\U0001f3ff\u200d\u2640\ufe0f
p2083
aa(lp2084
Vface-with-ok-gesture
p2085
aV\U0001f646
p2086
aa(lp2087
Vface-with-ok-gesture-type-1-2
p2088
aV\U0001f646\U0001f3fb
p2089
aa(lp2090
Vface-with-ok-gesture-type-3
p2091
aV\U0001f646\U0001f3fc
p2092
aa(lp2093
Vface-with-ok-gesture-type-4
p2094
aV\U0001f646\U0001f3fd
p2095
aa(lp2096
Vface-with-ok-gesture-type-5
p2097
aV\U0001f646\U0001f3fe
p2098
aa(lp2099
Vface-with-ok-gesture-type-6
p2100
aV\U0001f646\U0001f3ff
p2101
aa(lp2102
Vman-gesturing-ok
p2103
aV\U0001f646\u200d\u2642\ufe0f
p2104
aa(lp2105
Vman-gesturing-ok-type-1-2
p2106
aV\U0001f646\U0001f3fb\u200d\u2642\ufe0f
p2107
aa(lp2108
Vman-gesturing-ok-type-3
p2109
aV\U0001f646\U0001f3fc\u200d\u2642\ufe0f
p2110
aa(lp2111
Vman-gesturing-ok-type-4
p2112
aV\U0001f646\U0001f3fd\u200d\u2642\ufe0f
p2113
aa(lp2114
Vman-gesturing-ok-type-5
p2115
aV\U0001f646\U0001f3fe\u200d\u2642\ufe0f
p2116
aa(lp2117
Vman-gesturing-ok-type-6
p2118
aV\U0001f646\U0001f3ff\u200d\u2642\ufe0f
p2119
aa(lp2120
Vwoman-gesturing-ok
p2121
aV\U0001f646\u200d\u2640\ufe0f
p2122
aa(lp2123
Vwoman-gesturing-ok-type-1-2
p2124
aV\U0001f646\U0001f3fb\u200d\u2640\ufe0f
p2125
aa(lp2126
Vwoman-gesturing-ok-type-3
p2127
aV\U0001f646\U0001f3fc\u200d\u2640\ufe0f
p2128
aa(lp2129
Vwoman-gesturing-ok-type-4
p2130
aV\U0001f646\U0001f3fd\u200d\u2640\ufe0f
p2131
aa(lp2132
Vwoman-gesturing-ok-type-5
p2133
aV\U0001f646\U0001f3fe\u200d\u2640\ufe0f
p2134
aa(lp2135
Vwoman-gesturing-ok-type-6
p2136
aV\U0001f646\U0001f3ff\u200d\u2640\ufe0f
p2137
aa(lp2138
Vinformation-desk-person
p2139
aV\U0001f481
p2140
aa(lp2141
Vinformation-desk-person-type-1-2
p2142
aV\U0001f481\U0001f3fb
p2143
aa(lp2144
Vinformation-desk-person-type-3
p2145
aV\U0001f481\U0001f3fc
p2146
aa(lp2147
Vinformation-desk-person-type-4
p2148
aV\U0001f481\U0001f3fd
p2149
aa(lp2150
Vinformation-desk-person-type-5
p2151
aV\U0001f481\U0001f3fe
p2152
aa(lp2153
Vinformation-desk-person-type-6
p2154
aV\U0001f481\U0001f3ff
p2155
aa(lp2156
Vman-tipping-hand
p2157
aV\U0001f481\u200d\u2642\ufe0f
p2158
aa(lp2159
Vman-tipping-hand-type-1-2
p2160
aV\U0001f481\U0001f3fb\u200d\u2642\ufe0f
p2161
aa(lp2162
Vman-tipping-hand-type-3
p2163
aV\U0001f481\U0001f3fc\u200d\u2642\ufe0f
p2164
aa(lp2165
Vman-tipping-hand-type-4
p2166
aV\U0001f481\U0001f3fd\u200d\u2642\ufe0f
p2167
aa(lp2168
Vman-tipping-hand-type-5
p2169
aV\U0001f481\U0001f3fe\u200d\u2642\ufe0f
p2170
aa(lp2171
Vman-tipping-hand-type-6
p2172
aV\U0001f481\U0001f3ff\u200d\u2642\ufe0f
p2173
aa(lp2174
Vwoman-tipping-hand
p2175
aV\U0001f481\u200d\u2640\ufe0f
p2176
aa(lp2177
Vwoman-tipping-hand-type-1-2
p2178
aV\U0001f481\U0001f3fb\u200d\u2640\ufe0f
p2179
aa(lp2180
Vwoman-tipping-hand-type-3
p2181
aV\U0001f481\U0001f3fc\u200d\u2640\ufe0f
p2182
aa(lp2183
Vwoman-tipping-hand-type-4
p2184
aV\U0001f481\U0001f3fd\u200d\u2640\ufe0f
p2185
aa(lp2186
Vwoman-tipping-hand-type-5
p2187
aV\U0001f481\U0001f3fe\u200d\u2640\ufe0f
p2188
aa(lp2189
Vwoman-tipping-hand-type-6
p2190
aV\U0001f481\U0001f3ff\u200d\u2640\ufe0f
p2191
aa(lp2192
Vhappy-person-raising-one-hand
p2193
aV\U0001f64b
p2194
aa(lp2195
Vhappy-person-raising-one-hand-type-1-2
p2196
aV\U0001f64b\U0001f3fb
p2197
aa(lp2198
Vhappy-person-raising-one-hand-type-3
p2199
aV\U0001f64b\U0001f3fc
p2200
aa(lp2201
Vhappy-person-raising-one-hand-type-4
p2202
aV\U0001f64b\U0001f3fd
p2203
aa(lp2204
Vhappy-person-raising-one-hand-type-5
p2205
aV\U0001f64b\U0001f3fe
p2206
aa(lp2207
Vhappy-person-raising-one-hand-type-6
p2208
aV\U0001f64b\U0001f3ff
p2209
aa(lp2210
Vman-raising-hand
p2211
aV\U0001f64b\u200d\u2642\ufe0f
p2212
aa(lp2213
Vman-raising-hand-type-1-2
p2214
aV\U0001f64b\U0001f3fb\u200d\u2642\ufe0f
p2215
aa(lp2216
Vman-raising-hand-type-3
p2217
aV\U0001f64b\U0001f3fc\u200d\u2642\ufe0f
p2218
aa(lp2219
Vman-raising-hand-type-4
p2220
aV\U0001f64b\U0001f3fd\u200d\u2642\ufe0f
p2221
aa(lp2222
Vman-raising-hand-type-5
p2223
aV\U0001f64b\U0001f3fe\u200d\u2642\ufe0f
p2224
aa(lp2225
Vman-raising-hand-type-6
p2226
aV\U0001f64b\U0001f3ff\u200d\u2642\ufe0f
p2227
aa(lp2228
Vwoman-raising-hand
p2229
aV\U0001f64b\u200d\u2640\ufe0f
p2230
aa(lp2231
Vwoman-raising-hand-type-1-2
p2232
aV\U0001f64b\U0001f3fb\u200d\u2640\ufe0f
p2233
aa(lp2234
Vwoman-raising-hand-type-3
p2235
aV\U0001f64b\U0001f3fc\u200d\u2640\ufe0f
p2236
aa(lp2237
Vwoman-raising-hand-type-4
p2238
aV\U0001f64b\U0001f3fd\u200d\u2640\ufe0f
p2239
aa(lp2240
Vwoman-raising-hand-type-5
p2241
aV\U0001f64b\U0001f3fe\u200d\u2640\ufe0f
p2242
aa(lp2243
Vwoman-raising-hand-type-6
p2244
aV\U0001f64b\U0001f3ff\u200d\u2640\ufe0f
p2245
aa(lp2246
Vperson-bowing-deeply
p2247
aV\U0001f647
p2248
aa(lp2249
Vperson-bowing-deeply-type-1-2
p2250
aV\U0001f647\U0001f3fb
p2251
aa(lp2252
Vperson-bowing-deeply-type-3
p2253
aV\U0001f647\U0001f3fc
p2254
aa(lp2255
Vperson-bowing-deeply-type-4
p2256
aV\U0001f647\U0001f3fd
p2257
aa(lp2258
Vperson-bowing-deeply-type-5
p2259
aV\U0001f647\U0001f3fe
p2260
aa(lp2261
Vperson-bowing-deeply-type-6
p2262
aV\U0001f647\U0001f3ff
p2263
aa(lp2264
Vman-bowing-deeply
p2265
aV\U0001f647\u200d\u2642\ufe0f
p2266
aa(lp2267
Vman-bowing-deeply-type-1-2
p2268
aV\U0001f647\U0001f3fb\u200d\u2642\ufe0f
p2269
aa(lp2270
Vman-bowing-deeply-type-3
p2271
aV\U0001f647\U0001f3fc\u200d\u2642\ufe0f
p2272
aa(lp2273
Vman-bowing-deeply-type-4
p2274
aV\U0001f647\U0001f3fd\u200d\u2642\ufe0f
p2275
aa(lp2276
Vman-bowing-deeply-type-5
p2277
aV\U0001f647\U0001f3fe\u200d\u2642\ufe0f
p2278
aa(lp2279
Vman-bowing-deeply-type-6
p2280
aV\U0001f647\U0001f3ff\u200d\u2642\ufe0f
p2281
aa(lp2282
Vwoman-bowing-deeply
p2283
aV\U0001f647\u200d\u2640\ufe0f
p2284
aa(lp2285
Vwoman-bowing-deeply-type-1-2
p2286
aV\U0001f647\U0001f3fb\u200d\u2640\ufe0f
p2287
aa(lp2288
Vwoman-bowing-deeply-type-3
p2289
aV\U0001f647\U0001f3fc\u200d\u2640\ufe0f
p2290
aa(lp2291
Vwoman-bowing-deeply-type-4
p2292
aV\U0001f647\U0001f3fd\u200d\u2640\ufe0f
p2293
aa(lp2294
Vwoman-bowing-deeply-type-5
p2295
aV\U0001f647\U0001f3fe\u200d\u2640\ufe0f
p2296
aa(lp2297
Vwoman-bowing-deeply-type-6
p2298
aV\U0001f647\U0001f3ff\u200d\u2640\ufe0f
p2299
aa(lp2300
Vface-palm
p2301
aV\U0001f926
p2302
aa(lp2303
Vface-palm-type-1-2
p2304
aV\U0001f926\U0001f3fb
p2305
aa(lp2306
Vface-palm-type-3
p2307
aV\U0001f926\U0001f3fc
p2308
aa(lp2309
Vface-palm-type-4
p2310
aV\U0001f926\U0001f3fd
p2311
aa(lp2312
Vface-palm-type-5
p2313
aV\U0001f926\U0001f3fe
p2314
aa(lp2315
Vface-palm-type-6
p2316
aV\U0001f926\U0001f3ff
p2317
aa(lp2318
Vman-facepalming
p2319
aV\U0001f926\u200d\u2642\ufe0f
p2320
aa(lp2321
Vman-facepalming-type-1-2
p2322
aV\U0001f926\U0001f3fb\u200d\u2642\ufe0f
p2323
aa(lp2324
Vman-facepalming-type-3
p2325
aV\U0001f926\U0001f3fc\u200d\u2642\ufe0f
p2326
aa(lp2327
Vman-facepalming-type-4
p2328
aV\U0001f926\U0001f3fd\u200d\u2642\ufe0f
p2329
aa(lp2330
Vman-facepalming-type-5
p2331
aV\U0001f926\U0001f3fe\u200d\u2642\ufe0f
p2332
aa(lp2333
Vman-facepalming-type-6
p2334
aV\U0001f926\U0001f3ff\u200d\u2642\ufe0f
p2335
aa(lp2336
Vwoman-facepalming
p2337
aV\U0001f926\u200d\u2640\ufe0f
p2338
aa(lp2339
Vwoman-facepalming-type-1-2
p2340
aV\U0001f926\U0001f3fb\u200d\u2640\ufe0f
p2341
aa(lp2342
Vwoman-facepalming-type-3
p2343
aV\U0001f926\U0001f3fc\u200d\u2640\ufe0f
p2344
aa(lp2345
Vwoman-facepalming-type-4
p2346
aV\U0001f926\U0001f3fd\u200d\u2640\ufe0f
p2347
aa(lp2348
Vwoman-facepalming-type-5
p2349
aV\U0001f926\U0001f3fe\u200d\u2640\ufe0f
p2350
aa(lp2351
Vwoman-facepalming-type-6
p2352
aV\U0001f926\U0001f3ff\u200d\u2640\ufe0f
p2353
aa(lp2354
Vshrug
p2355
aV\U0001f937
p2356
aa(lp2357
Vshrug-type-1-2
p2358
aV\U0001f937\U0001f3fb
p2359
aa(lp2360
Vshrug-type-3
p2361
aV\U0001f937\U0001f3fc
p2362
aa(lp2363
Vshrug-type-4
p2364
aV\U0001f937\U0001f3fd
p2365
aa(lp2366
Vshrug-type-5
p2367
aV\U0001f937\U0001f3fe
p2368
aa(lp2369
Vshrug-type-6
p2370
aV\U0001f937\U0001f3ff
p2371
aa(lp2372
Vman-shrugging
p2373
aV\U0001f937\u200d\u2642\ufe0f
p2374
aa(lp2375
Vman-shrugging-type-1-2
p2376
aV\U0001f937\U0001f3fb\u200d\u2642\ufe0f
p2377
aa(lp2378
Vman-shrugging-type-3
p2379
aV\U0001f937\U0001f3fc\u200d\u2642\ufe0f
p2380
aa(lp2381
Vman-shrugging-type-4
p2382
aV\U0001f937\U0001f3fd\u200d\u2642\ufe0f
p2383
aa(lp2384
Vman-shrugging-type-5
p2385
aV\U0001f937\U0001f3fe\u200d\u2642\ufe0f
p2386
aa(lp2387
Vman-shrugging-type-6
p2388
aV\U0001f937\U0001f3ff\u200d\u2642\ufe0f
p2389
aa(lp2390
Vwoman-shrugging
p2391
aV\U0001f937\u200d\u2640\ufe0f
p2392
aa(lp2393
Vwoman-shrugging-type-1-2
p2394
aV\U0001f937\U0001f3fb\u200d\u2640\ufe0f
p2395
aa(lp2396
Vwoman-shrugging-type-3
p2397
aV\U0001f937\U0001f3fc\u200d\u2640\ufe0f
p2398
aa(lp2399
Vwoman-shrugging-type-4
p2400
aV\U0001f937\U0001f3fd\u200d\u2640\ufe0f
p2401
aa(lp2402
Vwoman-shrugging-type-5
p2403
aV\U0001f937\U0001f3fe\u200d\u2640\ufe0f
p2404
aa(lp2405
Vwoman-shrugging-type-6
p2406
aV\U0001f937\U0001f3ff\u200d\u2640\ufe0f
p2407
aa(lp2408
Vface-massage
p2409
aV\U0001f486
p2410
aa(lp2411
Vface-massage-type-1-2
p2412
aV\U0001f486\U0001f3fb
p2413
aa(lp2414
Vface-massage-type-3
p2415
aV\U0001f486\U0001f3fc
p2416
aa(lp2417
Vface-massage-type-4
p2418
aV\U0001f486\U0001f3fd
p2419
aa(lp2420
Vface-massage-type-5
p2421
aV\U0001f486\U0001f3fe
p2422
aa(lp2423
Vface-massage-type-6
p2424
aV\U0001f486\U0001f3ff
p2425
aa(lp2426
Vman-getting-face-massage
p2427
aV\U0001f486\u200d\u2642\ufe0f
p2428
aa(lp2429
Vman-getting-face-massage-type-1-2
p2430
aV\U0001f486\U0001f3fb\u200d\u2642\ufe0f
p2431
aa(lp2432
Vman-getting-face-massage-type-3
p2433
aV\U0001f486\U0001f3fc\u200d\u2642\ufe0f
p2434
aa(lp2435
Vman-getting-face-massage-type-4
p2436
aV\U0001f486\U0001f3fd\u200d\u2642\ufe0f
p2437
aa(lp2438
Vman-getting-face-massage-type-5
p2439
aV\U0001f486\U0001f3fe\u200d\u2642\ufe0f
p2440
aa(lp2441
Vman-getting-face-massage-type-6
p2442
aV\U0001f486\U0001f3ff\u200d\u2642\ufe0f
p2443
aa(lp2444
Vwoman-getting-face-massage
p2445
aV\U0001f486\u200d\u2640\ufe0f
p2446
aa(lp2447
Vwoman-getting-face-massage-type-1-2
p2448
aV\U0001f486\U0001f3fb\u200d\u2640\ufe0f
p2449
aa(lp2450
Vwoman-getting-face-massage-type-3
p2451
aV\U0001f486\U0001f3fc\u200d\u2640\ufe0f
p2452
aa(lp2453
Vwoman-getting-face-massage-type-4
p2454
aV\U0001f486\U0001f3fd\u200d\u2640\ufe0f
p2455
aa(lp2456
Vwoman-getting-face-massage-type-5
p2457
aV\U0001f486\U0001f3fe\u200d\u2640\ufe0f
p2458
aa(lp2459
Vwoman-getting-face-massage-type-6
p2460
aV\U0001f486\U0001f3ff\u200d\u2640\ufe0f
p2461
aa(lp2462
Vhaircut
p2463
aV\U0001f487
p2464
aa(lp2465
Vhaircut-type-1-2
p2466
aV\U0001f487\U0001f3fb
p2467
aa(lp2468
Vhaircut-type-3
p2469
aV\U0001f487\U0001f3fc
p2470
aa(lp2471
Vhaircut-type-4
p2472
aV\U0001f487\U0001f3fd
p2473
aa(lp2474
Vhaircut-type-5
p2475
aV\U0001f487\U0001f3fe
p2476
aa(lp2477
Vhaircut-type-6
p2478
aV\U0001f487\U0001f3ff
p2479
aa(lp2480
Vman-getting-haircut
p2481
aV\U0001f487\u200d\u2642\ufe0f
p2482
aa(lp2483
Vman-getting-haircut-type-1-2
p2484
aV\U0001f487\U0001f3fb\u200d\u2642\ufe0f
p2485
aa(lp2486
Vman-getting-haircut-type-3
p2487
aV\U0001f487\U0001f3fc\u200d\u2642\ufe0f
p2488
aa(lp2489
Vman-getting-haircut-type-4
p2490
aV\U0001f487\U0001f3fd\u200d\u2642\ufe0f
p2491
aa(lp2492
Vman-getting-haircut-type-5
p2493
aV\U0001f487\U0001f3fe\u200d\u2642\ufe0f
p2494
aa(lp2495
Vman-getting-haircut-type-6
p2496
aV\U0001f487\U0001f3ff\u200d\u2642\ufe0f
p2497
aa(lp2498
Vwoman-getting-haircut
p2499
aV\U0001f487\u200d\u2640\ufe0f
p2500
aa(lp2501
Vwoman-getting-haircut-type-1-2
p2502
aV\U0001f487\U0001f3fb\u200d\u2640\ufe0f
p2503
aa(lp2504
Vwoman-getting-haircut-type-3
p2505
aV\U0001f487\U0001f3fc\u200d\u2640\ufe0f
p2506
aa(lp2507
Vwoman-getting-haircut-type-4
p2508
aV\U0001f487\U0001f3fd\u200d\u2640\ufe0f
p2509
aa(lp2510
Vwoman-getting-haircut-type-5
p2511
aV\U0001f487\U0001f3fe\u200d\u2640\ufe0f
p2512
aa(lp2513
Vwoman-getting-haircut-type-6
p2514
aV\U0001f487\U0001f3ff\u200d\u2640\ufe0f
p2515
aa(lp2516
Vpedestrian
p2517
aV\U0001f6b6
p2518
aa(lp2519
Vpedestrian-type-1-2
p2520
aV\U0001f6b6\U0001f3fb
p2521
aa(lp2522
Vpedestrian-type-3
p2523
aV\U0001f6b6\U0001f3fc
p2524
aa(lp2525
Vpedestrian-type-4
p2526
aV\U0001f6b6\U0001f3fd
p2527
aa(lp2528
Vpedestrian-type-5
p2529
aV\U0001f6b6\U0001f3fe
p2530
aa(lp2531
Vpedestrian-type-6
p2532
aV\U0001f6b6\U0001f3ff
p2533
aa(lp2534
Vman-walking
p2535
aV\U0001f6b6\u200d\u2642\ufe0f
p2536
aa(lp2537
Vman-walking-type-1-2
p2538
aV\U0001f6b6\U0001f3fb\u200d\u2642\ufe0f
p2539
aa(lp2540
Vman-walking-type-3
p2541
aV\U0001f6b6\U0001f3fc\u200d\u2642\ufe0f
p2542
aa(lp2543
Vman-walking-type-4
p2544
aV\U0001f6b6\U0001f3fd\u200d\u2642\ufe0f
p2545
aa(lp2546
Vman-walking-type-5
p2547
aV\U0001f6b6\U0001f3fe\u200d\u2642\ufe0f
p2548
aa(lp2549
Vman-walking-type-6
p2550
aV\U0001f6b6\U0001f3ff\u200d\u2642\ufe0f
p2551
aa(lp2552
Vwoman-walking
p2553
aV\U0001f6b6\u200d\u2640\ufe0f
p2554
aa(lp2555
Vwoman-walking-type-1-2
p2556
aV\U0001f6b6\U0001f3fb\u200d\u2640\ufe0f
p2557
aa(lp2558
Vwoman-walking-type-3
p2559
aV\U0001f6b6\U0001f3fc\u200d\u2640\ufe0f
p2560
aa(lp2561
Vwoman-walking-type-4
p2562
aV\U0001f6b6\U0001f3fd\u200d\u2640\ufe0f
p2563
aa(lp2564
Vwoman-walking-type-5
p2565
aV\U0001f6b6\U0001f3fe\u200d\u2640\ufe0f
p2566
aa(lp2567
Vwoman-walking-type-6
p2568
aV\U0001f6b6\U0001f3ff\u200d\u2640\ufe0f
p2569
aa(lp2570
Vrunner
p2571
aV\U0001f3c3
p2572
aa(lp2573
Vrunner-type-1-2
p2574
aV\U0001f3c3\U0001f3fb
p2575
aa(lp2576
Vrunner-type-3
p2577
aV\U0001f3c3\U0001f3fc
p2578
aa(lp2579
Vrunner-type-4
p2580
aV\U0001f3c3\U0001f3fd
p2581
aa(lp2582
Vrunner-type-5
p2583
aV\U0001f3c3\U0001f3fe
p2584
aa(lp2585
Vrunner-type-6
p2586
aV\U0001f3c3\U0001f3ff
p2587
aa(lp2588
Vman-running
p2589
aV\U0001f3c3\u200d\u2642\ufe0f
p2590
aa(lp2591
Vman-running-type-1-2
p2592
aV\U0001f3c3\U0001f3fb\u200d\u2642\ufe0f
p2593
aa(lp2594
Vman-running-type-3
p2595
aV\U0001f3c3\U0001f3fc\u200d\u2642\ufe0f
p2596
aa(lp2597
Vman-running-type-4
p2598
aV\U0001f3c3\U0001f3fd\u200d\u2642\ufe0f
p2599
aa(lp2600
Vman-running-type-5
p2601
aV\U0001f3c3\U0001f3fe\u200d\u2642\ufe0f
p2602
aa(lp2603
Vman-running-type-6
p2604
aV\U0001f3c3\U0001f3ff\u200d\u2642\ufe0f
p2605
aa(lp2606
Vwoman-running
p2607
aV\U0001f3c3\u200d\u2640\ufe0f
p2608
aa(lp2609
Vwoman-running-type-1-2
p2610
aV\U0001f3c3\U0001f3fb\u200d\u2640\ufe0f
p2611
aa(lp2612
Vwoman-running-type-3
p2613
aV\U0001f3c3\U0001f3fc\u200d\u2640\ufe0f
p2614
aa(lp2615
Vwoman-running-type-4
p2616
aV\U0001f3c3\U0001f3fd\u200d\u2640\ufe0f
p2617
aa(lp2618
Vwoman-running-type-5
p2619
aV\U0001f3c3\U0001f3fe\u200d\u2640\ufe0f
p2620
aa(lp2621
Vwoman-running-type-6
p2622
aV\U0001f3c3\U0001f3ff\u200d\u2640\ufe0f
p2623
aa(lp2624
Vdancer
p2625
aV\U0001f483
p2626
aa(lp2627
Vdancer-type-1-2
p2628
aV\U0001f483\U0001f3fb
p2629
aa(lp2630
Vdancer-type-3
p2631
aV\U0001f483\U0001f3fc
p2632
aa(lp2633
Vdancer-type-4
p2634
aV\U0001f483\U0001f3fd
p2635
aa(lp2636
Vdancer-type-5
p2637
aV\U0001f483\U0001f3fe
p2638
aa(lp2639
Vdancer-type-6
p2640
aV\U0001f483\U0001f3ff
p2641
aa(lp2642
Vman-dancing
p2643
aV\U0001f57a
p2644
aa(lp2645
Vman-dancing-type-1-2
p2646
aV\U0001f57a\U0001f3fb
p2647
aa(lp2648
Vman-dancing-type-3
p2649
aV\U0001f57a\U0001f3fc
p2650
aa(lp2651
Vman-dancing-type-4
p2652
aV\U0001f57a\U0001f3fd
p2653
aa(lp2654
Vman-dancing-type-5
p2655
aV\U0001f57a\U0001f3fe
p2656
aa(lp2657
Vman-dancing-type-6
p2658
aV\U0001f57a\U0001f3ff
p2659
aa(lp2660
Vwoman-with-bunny-ears
p2661
aV\U0001f46f
p2662
aa(lp2663
Vmen-with-bunny-ears-partying
p2664
aV\U0001f46f\u200d\u2642\ufe0f
p2665
aa(lp2666
Vwomen-with-bunny-ears-partying
p2667
aV\U0001f46f\u200d\u2640\ufe0f
p2668
aa(lp2669
Vperson-in-steamy-room
p2670
aV\U0001f9d6
p2671
aa(lp2672
Vperson-in-steamy-room-light-skin-tone
p2673
aV\U0001f9d6\U0001f3fb
p2674
aa(lp2675
Vperson-in-steamy-room-medium-light-skin-tone
p2676
aV\U0001f9d6\U0001f3fc
p2677
aa(lp2678
Vperson-in-steamy-room-medium-skin-tone
p2679
aV\U0001f9d6\U0001f3fd
p2680
aa(lp2681
Vperson-in-steamy-room-medium-dark-skin-tone
p2682
aV\U0001f9d6\U0001f3fe
p2683
aa(lp2684
Vperson-in-steamy-room-dark-skin-tone
p2685
aV\U0001f9d6\U0001f3ff
p2686
aa(lp2687
Vwoman-in-steamy-room
p2688
aV\U0001f9d6\u200d\u2640\ufe0f
p2689
aa(lp2690
Vwoman-in-steamy-room-light-skin-tone
p2691
aV\U0001f9d6\U0001f3fb\u200d\u2640\ufe0f
p2692
aa(lp2693
Vwoman-in-steamy-room-medium-light-skin-tone
p2694
aV\U0001f9d6\U0001f3fc\u200d\u2640\ufe0f
p2695
aa(lp2696
Vwoman-in-steamy-room-medium-skin-tone
p2697
aV\U0001f9d6\U0001f3fd\u200d\u2640\ufe0f
p2698
aa(lp2699
Vwoman-in-steamy-room-medium-dark-skin-tone
p2700
aV\U0001f9d6\U0001f3fe\u200d\u2640\ufe0f
p2701
aa(lp2702
Vwoman-in-steamy-room-dark-skin-tone
p2703
aV\U0001f9d6\U0001f3ff\u200d\u2640\ufe0f
p2704
aa(lp2705
Vman-in-steamy-room
p2706
aV\U0001f9d6\u200d\u2642\ufe0f
p2707
aa(lp2708
Vman-in-steamy-room-light-skin-tone
p2709
aV\U0001f9d6\U0001f3fb\u200d\u2642\ufe0f
p2710
aa(lp2711
Vman-in-steamy-room-medium-light-skin-tone
p2712
aV\U0001f9d6\U0001f3fc\u200d\u2642\ufe0f
p2713
aa(lp2714
Vman-in-steamy-room-medium-skin-tone
p2715
aV\U0001f9d6\U0001f3fd\u200d\u2642\ufe0f
p2716
aa(lp2717
Vman-in-steamy-room-medium-dark-skin-tone
p2718
aV\U0001f9d6\U0001f3fe\u200d\u2642\ufe0f
p2719
aa(lp2720
Vman-in-steamy-room-dark-skin-tone
p2721
aV\U0001f9d6\U0001f3ff\u200d\u2642\ufe0f
p2722
aa(lp2723
Vperson-climbing
p2724
aV\U0001f9d7
p2725
aa(lp2726
Vperson-climbing-light-skin-tone
p2727
aV\U0001f9d7\U0001f3fb
p2728
aa(lp2729
Vperson-climbing-medium-light-skin-tone
p2730
aV\U0001f9d7\U0001f3fc
p2731
aa(lp2732
Vperson-climbing-medium-skin-tone
p2733
aV\U0001f9d7\U0001f3fd
p2734
aa(lp2735
Vperson-climbing-medium-dark-skin-tone
p2736
aV\U0001f9d7\U0001f3fe
p2737
aa(lp2738
Vperson-climbing-dark-skin-tone
p2739
aV\U0001f9d7\U0001f3ff
p2740
aa(lp2741
Vwoman-climbing
p2742
aV\U0001f9d7\u200d\u2640\ufe0f
p2743
aa(lp2744
Vwoman-climbing-light-skin-tone
p2745
aV\U0001f9d7\U0001f3fb\u200d\u2640\ufe0f
p2746
aa(lp2747
Vwoman-climbing-medium-light-skin-tone
p2748
aV\U0001f9d7\U0001f3fc\u200d\u2640\ufe0f
p2749
aa(lp2750
Vwoman-climbing-medium-skin-tone
p2751
aV\U0001f9d7\U0001f3fd\u200d\u2640\ufe0f
p2752
aa(lp2753
Vwoman-climbing-medium-dark-skin-tone
p2754
aV\U0001f9d7\U0001f3fe\u200d\u2640\ufe0f
p2755
aa(lp2756
Vwoman-climbing-dark-skin-tone
p2757
aV\U0001f9d7\U0001f3ff\u200d\u2640\ufe0f
p2758
aa(lp2759
Vman-climbing
p2760
aV\U0001f9d7\u200d\u2642\ufe0f
p2761
aa(lp2762
Vman-climbing-light-skin-tone
p2763
aV\U0001f9d7\U0001f3fb\u200d\u2642\ufe0f
p2764
aa(lp2765
Vman-climbing-medium-light-skin-tone
p2766
aV\U0001f9d7\U0001f3fc\u200d\u2642\ufe0f
p2767
aa(lp2768
Vman-climbing-medium-skin-tone
p2769
aV\U0001f9d7\U0001f3fd\u200d\u2642\ufe0f
p2770
aa(lp2771
Vman-climbing-medium-dark-skin-tone
p2772
aV\U0001f9d7\U0001f3fe\u200d\u2642\ufe0f
p2773
aa(lp2774
Vman-climbing-dark-skin-tone
p2775
aV\U0001f9d7\U0001f3ff\u200d\u2642\ufe0f
p2776
aa(lp2777
Vperson-in-lotus-position
p2778
aV\U0001f9d8
p2779
aa(lp2780
Vperson-in-lotus-position-light-skin-tone
p2781
aV\U0001f9d8\U0001f3fb
p2782
aa(lp2783
Vperson-in-lotus-position-medium-light-skin-tone
p2784
aV\U0001f9d8\U0001f3fc
p2785
aa(lp2786
Vperson-in-lotus-position-medium-skin-tone
p2787
aV\U0001f9d8\U0001f3fd
p2788
aa(lp2789
Vperson-in-lotus-position-medium-dark-skin-tone
p2790
aV\U0001f9d8\U0001f3fe
p2791
aa(lp2792
Vperson-in-lotus-position-dark-skin-tone
p2793
aV\U0001f9d8\U0001f3ff
p2794
aa(lp2795
Vwoman-in-lotus-position
p2796
aV\U0001f9d8\u200d\u2640\ufe0f
p2797
aa(lp2798
Vwoman-in-lotus-position-light-skin-tone
p2799
aV\U0001f9d8\U0001f3fb\u200d\u2640\ufe0f
p2800
aa(lp2801
Vwoman-in-lotus-position-medium-light-skin-tone
p2802
aV\U0001f9d8\U0001f3fc\u200d\u2640\ufe0f
p2803
aa(lp2804
Vwoman-in-lotus-position-medium-skin-tone
p2805
aV\U0001f9d8\U0001f3fd\u200d\u2640\ufe0f
p2806
aa(lp2807
Vwoman-in-lotus-position-medium-dark-skin-tone
p2808
aV\U0001f9d8\U0001f3fe\u200d\u2640\ufe0f
p2809
aa(lp2810
Vwoman-in-lotus-position-dark-skin-tone
p2811
aV\U0001f9d8\U0001f3ff\u200d\u2640\ufe0f
p2812
aa(lp2813
Vman-in-lotus-position
p2814
aV\U0001f9d8\u200d\u2642\ufe0f
p2815
aa(lp2816
Vman-in-lotus-position-light-skin-tone
p2817
aV\U0001f9d8\U0001f3fb\u200d\u2642\ufe0f
p2818
aa(lp2819
Vman-in-lotus-position-medium-light-skin-tone
p2820
aV\U0001f9d8\U0001f3fc\u200d\u2642\ufe0f
p2821
aa(lp2822
Vman-in-lotus-position-medium-skin-tone
p2823
aV\U0001f9d8\U0001f3fd\u200d\u2642\ufe0f
p2824
aa(lp2825
Vman-in-lotus-position-medium-dark-skin-tone
p2826
aV\U0001f9d8\U0001f3fe\u200d\u2642\ufe0f
p2827
aa(lp2828
Vman-in-lotus-position-dark-skin-tone
p2829
aV\U0001f9d8\U0001f3ff\u200d\u2642\ufe0f
p2830
aa(lp2831
Vbath
p2832
aV\U0001f6c0
p2833
aa(lp2834
Vbath-type-1-2
p2835
aV\U0001f6c0\U0001f3fb
p2836
aa(lp2837
Vbath-type-3
p2838
aV\U0001f6c0\U0001f3fc
p2839
aa(lp2840
Vbath-type-4
p2841
aV\U0001f6c0\U0001f3fd
p2842
aa(lp2843
Vbath-type-5
p2844
aV\U0001f6c0\U0001f3fe
p2845
aa(lp2846
Vbath-type-6
p2847
aV\U0001f6c0\U0001f3ff
p2848
aa(lp2849
Vsleeping-accommodation
p2850
aV\U0001f6cc
p2851
aa(lp2852
Vman-in-business-suit-levitating
p2853
aV\U0001f574\ufe0f
p2854
aa(lp2855
Vman-in-business-suit-levitating-type-1-2
p2856
aV\U0001f574\U0001f3fb
p2857
aa(lp2858
Vman-in-business-suit-levitating-type-3
p2859
aV\U0001f574\U0001f3fc
p2860
aa(lp2861
Vman-in-business-suit-levitating-type-4
p2862
aV\U0001f574\U0001f3fd
p2863
aa(lp2864
Vman-in-business-suit-levitating-type-5
p2865
aV\U0001f574\U0001f3fe
p2866
aa(lp2867
Vman-in-business-suit-levitating-type-6
p2868
aV\U0001f574\U0001f3ff
p2869
aa(lp2870
Vspeaking-head-in-silhouette
p2871
aV\U0001f5e3\ufe0f
p2872
aa(lp2873
Vbust-in-silhouette
p2874
aV\U0001f464
p2875
aa(lp2876
Vbusts-in-silhouette
p2877
aV\U0001f465
p2878
aa(lp2879
Vfencer
p2880
aV\U0001f93a
p2881
aa(lp2882
Vhorse-racing
p2883
aV\U0001f3c7
p2884
aa(lp2885
Vhorse-racing-type-1-2
p2886
aV\U0001f3c7\U0001f3fb
p2887
aa(lp2888
Vhorse-racing-type-3
p2889
aV\U0001f3c7\U0001f3fc
p2890
aa(lp2891
Vhorse-racing-type-4
p2892
aV\U0001f3c7\U0001f3fd
p2893
aa(lp2894
Vhorse-racing-type-5
p2895
aV\U0001f3c7\U0001f3fe
p2896
aa(lp2897
Vhorse-racing-type-6
p2898
aV\U0001f3c7\U0001f3ff
p2899
aa(lp2900
Vskier
p2901
aV\u26f7\ufe0f
p2902
aa(lp2903
Vsnowboarder
p2904
aV\U0001f3c2
p2905
aa(lp2906
Vgolfer
p2907
aV\U0001f3cc\ufe0f
p2908
aa(lp2909
Vgolfer-type-1-2
p2910
aV\U0001f3cc\U0001f3fb
p2911
aa(lp2912
Vgolfer-type-3
p2913
aV\U0001f3cc\U0001f3fc
p2914
aa(lp2915
Vgolfer-type-4
p2916
aV\U0001f3cc\U0001f3fd
p2917
aa(lp2918
Vgolfer-type-5
p2919
aV\U0001f3cc\U0001f3fe
p2920
aa(lp2921
Vgolfer-type-6
p2922
aV\U0001f3cc\U0001f3ff
p2923
aa(lp2924
Vman-golfing
p2925
aV\U0001f3cc\ufe0f\u200d\u2642\ufe0f
p2926
aa(lp2927
Vman-golfing-type-1-2
p2928
aV\U0001f3cc\U0001f3fb\u200d\u2642\ufe0f
p2929
aa(lp2930
Vman-golfing-type-3
p2931
aV\U0001f3cc\U0001f3fc\u200d\u2642\ufe0f
p2932
aa(lp2933
Vman-golfing-type-4
p2934
aV\U0001f3cc\U0001f3fd\u200d\u2642\ufe0f
p2935
aa(lp2936
Vman-golfing-type-5
p2937
aV\U0001f3cc\U0001f3fe\u200d\u2642\ufe0f
p2938
aa(lp2939
Vman-golfing-type-6
p2940
aV\U0001f3cc\U0001f3ff\u200d\u2642\ufe0f
p2941
aa(lp2942
Vwoman-golfing
p2943
aV\U0001f3cc\ufe0f\u200d\u2640\ufe0f
p2944
aa(lp2945
Vwoman-golfing-type-1-2
p2946
aV\U0001f3cc\U0001f3fb\u200d\u2640\ufe0f
p2947
aa(lp2948
Vwoman-golfing-type-3
p2949
aV\U0001f3cc\U0001f3fc\u200d\u2640\ufe0f
p2950
aa(lp2951
Vwoman-golfing-type-4
p2952
aV\U0001f3cc\U0001f3fd\u200d\u2640\ufe0f
p2953
aa(lp2954
Vwoman-golfing-type-5
p2955
aV\U0001f3cc\U0001f3fe\u200d\u2640\ufe0f
p2956
aa(lp2957
Vwoman-golfing-type-6
p2958
aV\U0001f3cc\U0001f3ff\u200d\u2640\ufe0f
p2959
aa(lp2960
Vsurfer
p2961
aV\U0001f3c4
p2962
aa(lp2963
Vsurfer-type-1-2
p2964
aV\U0001f3c4\U0001f3fb
p2965
aa(lp2966
Vsurfer-type-3
p2967
aV\U0001f3c4\U0001f3fc
p2968
aa(lp2969
Vsurfer-type-4
p2970
aV\U0001f3c4\U0001f3fd
p2971
aa(lp2972
Vsurfer-type-5
p2973
aV\U0001f3c4\U0001f3fe
p2974
aa(lp2975
Vsurfer-type-6
p2976
aV\U0001f3c4\U0001f3ff
p2977
aa(lp2978
Vman-surfing
p2979
aV\U0001f3c4\u200d\u2642\ufe0f
p2980
aa(lp2981
Vman-surfing-type-1-2
p2982
aV\U0001f3c4\U0001f3fb\u200d\u2642\ufe0f
p2983
aa(lp2984
Vman-surfing-type-3
p2985
aV\U0001f3c4\U0001f3fc\u200d\u2642\ufe0f
p2986
aa(lp2987
Vman-surfing-type-4
p2988
aV\U0001f3c4\U0001f3fd\u200d\u2642\ufe0f
p2989
aa(lp2990
Vman-surfing-type-5
p2991
aV\U0001f3c4\U0001f3fe\u200d\u2642\ufe0f
p2992
aa(lp2993
Vman-surfing-type-6
p2994
aV\U0001f3c4\U0001f3ff\u200d\u2642\ufe0f
p2995
aa(lp2996
Vwoman-surfing
p2997
aV\U0001f3c4\u200d\u2640\ufe0f
p2998
aa(lp2999
Vwoman-surfing-type-1-2
p3000
aV\U0001f3c4\U0001f3fb\u200d\u2640\ufe0f
p3001
aa(lp3002
Vwoman-surfing-type-3
p3003
aV\U0001f3c4\U0001f3fc\u200d\u2640\ufe0f
p3004
aa(lp3005
Vwoman-surfing-type-4
p3006
aV\U0001f3c4\U0001f3fd\u200d\u2640\ufe0f
p3007
aa(lp3008
Vwoman-surfing-type-5
p3009
aV\U0001f3c4\U0001f3fe\u200d\u2640\ufe0f
p3010
aa(lp3011
Vwoman-surfing-type-6
p3012
aV\U0001f3c4\U0001f3ff\u200d\u2640\ufe0f
p3013
aa(lp3014
Vrowboat
p3015
aV\U0001f6a3
p3016
aa(lp3017
Vrowboat-type-1-2
p3018
aV\U0001f6a3\U0001f3fb
p3019
aa(lp3020
Vrowboat-type-3
p3021
aV\U0001f6a3\U0001f3fc
p3022
aa(lp3023
Vrowboat-type-4
p3024
aV\U0001f6a3\U0001f3fd
p3025
aa(lp3026
Vrowboat-type-5
p3027
aV\U0001f6a3\U0001f3fe
p3028
aa(lp3029
Vrowboat-type-6
p3030
aV\U0001f6a3\U0001f3ff
p3031
aa(lp3032
Vman-rowing-boat
p3033
aV\U0001f6a3\u200d\u2642\ufe0f
p3034
aa(lp3035
Vman-rowing-boat-type-1-2
p3036
aV\U0001f6a3\U0001f3fb\u200d\u2642\ufe0f
p3037
aa(lp3038
Vman-rowing-boat-type-3
p3039
aV\U0001f6a3\U0001f3fc\u200d\u2642\ufe0f
p3040
aa(lp3041
Vman-rowing-boat-type-4
p3042
aV\U0001f6a3\U0001f3fd\u200d\u2642\ufe0f
p3043
aa(lp3044
Vman-rowing-boat-type-5
p3045
aV\U0001f6a3\U0001f3fe\u200d\u2642\ufe0f
p3046
aa(lp3047
Vman-rowing-boat-type-6
p3048
aV\U0001f6a3\U0001f3ff\u200d\u2642\ufe0f
p3049
aa(lp3050
Vwoman-rowing-boat
p3051
aV\U0001f6a3\u200d\u2640\ufe0f
p3052
aa(lp3053
Vwoman-rowing-boat-type-1-2
p3054
aV\U0001f6a3\U0001f3fb\u200d\u2640\ufe0f
p3055
aa(lp3056
Vwoman-rowing-boat-type-3
p3057
aV\U0001f6a3\U0001f3fc\u200d\u2640\ufe0f
p3058
aa(lp3059
Vwoman-rowing-boat-type-4
p3060
aV\U0001f6a3\U0001f3fd\u200d\u2640\ufe0f
p3061
aa(lp3062
Vwoman-rowing-boat-type-5
p3063
aV\U0001f6a3\U0001f3fe\u200d\u2640\ufe0f
p3064
aa(lp3065
Vwoman-rowing-boat-type-6
p3066
aV\U0001f6a3\U0001f3ff\u200d\u2640\ufe0f
p3067
aa(lp3068
Vswimmer
p3069
aV\U0001f3ca
p3070
aa(lp3071
Vswimmer-type-1-2
p3072
aV\U0001f3ca\U0001f3fb
p3073
aa(lp3074
Vswimmer-type-3
p3075
aV\U0001f3ca\U0001f3fc
p3076
aa(lp3077
Vswimmer-type-4
p3078
aV\U0001f3ca\U0001f3fd
p3079
aa(lp3080
Vswimmer-type-5
p3081
aV\U0001f3ca\U0001f3fe
p3082
aa(lp3083
Vswimmer-type-6
p3084
aV\U0001f3ca\U0001f3ff
p3085
aa(lp3086
Vman-swimming
p3087
aV\U0001f3ca\u200d\u2642\ufe0f
p3088
aa(lp3089
Vman-swimming-type-1-2
p3090
aV\U0001f3ca\U0001f3fb\u200d\u2642\ufe0f
p3091
aa(lp3092
Vman-swimming-type-3
p3093
aV\U0001f3ca\U0001f3fc\u200d\u2642\ufe0f
p3094
aa(lp3095
Vman-swimming-type-4
p3096
aV\U0001f3ca\U0001f3fd\u200d\u2642\ufe0f
p3097
aa(lp3098
Vman-swimming-type-5
p3099
aV\U0001f3ca\U0001f3fe\u200d\u2642\ufe0f
p3100
aa(lp3101
Vman-swimming-type-6
p3102
aV\U0001f3ca\U0001f3ff\u200d\u2642\ufe0f
p3103
aa(lp3104
Vwoman-swimming
p3105
aV\U0001f3ca\u200d\u2640\ufe0f
p3106
aa(lp3107
Vwoman-swimming-type-1-2
p3108
aV\U0001f3ca\U0001f3fb\u200d\u2640\ufe0f
p3109
aa(lp3110
Vwoman-swimming-type-3
p3111
aV\U0001f3ca\U0001f3fc\u200d\u2640\ufe0f
p3112
aa(lp3113
Vwoman-swimming-type-4
p3114
aV\U0001f3ca\U0001f3fd\u200d\u2640\ufe0f
p3115
aa(lp3116
Vwoman-swimming-type-5
p3117
aV\U0001f3ca\U0001f3fe\u200d\u2640\ufe0f
p3118
aa(lp3119
Vwoman-swimming-type-6
p3120
aV\U0001f3ca\U0001f3ff\u200d\u2640\ufe0f
p3121
aa(lp3122
Vperson-with-ball
p3123
aV\u26f9\ufe0f
p3124
aa(lp3125
Vperson-with-ball-type-1-2
p3126
aV\u26f9\U0001f3fb
p3127
aa(lp3128
Vperson-with-ball-type-3
p3129
aV\u26f9\U0001f3fc
p3130
aa(lp3131
Vperson-with-ball-type-4
p3132
aV\u26f9\U0001f3fd
p3133
aa(lp3134
Vperson-with-ball-type-5
p3135
aV\u26f9\U0001f3fe
p3136
aa(lp3137
Vperson-with-ball-type-6
p3138
aV\u26f9\U0001f3ff
p3139
aa(lp3140
Vman-with-ball
p3141
aV\u26f9\ufe0f\u200d\u2642\ufe0f
p3142
aa(lp3143
Vman-with-ball-type-1-2
p3144
aV\u26f9\U0001f3fb\u200d\u2642\ufe0f
p3145
aa(lp3146
Vman-with-ball-type-3
p3147
aV\u26f9\U0001f3fc\u200d\u2642\ufe0f
p3148
aa(lp3149
Vman-with-ball-type-4
p3150
aV\u26f9\U0001f3fd\u200d\u2642\ufe0f
p3151
aa(lp3152
Vman-with-ball-type-5
p3153
aV\u26f9\U0001f3fe\u200d\u2642\ufe0f
p3154
aa(lp3155
Vman-with-ball-type-6
p3156
aV\u26f9\U0001f3ff\u200d\u2642\ufe0f
p3157
aa(lp3158
Vwoman-with-ball
p3159
aV\u26f9\ufe0f\u200d\u2640\ufe0f
p3160
aa(lp3161
Vwoman-with-ball-type-1-2
p3162
aV\u26f9\U0001f3fb\u200d\u2640\ufe0f
p3163
aa(lp3164
Vwoman-with-ball-type-3
p3165
aV\u26f9\U0001f3fc\u200d\u2640\ufe0f
p3166
aa(lp3167
Vwoman-with-ball-type-4
p3168
aV\u26f9\U0001f3fd\u200d\u2640\ufe0f
p3169
aa(lp3170
Vwoman-with-ball-type-5
p3171
aV\u26f9\U0001f3fe\u200d\u2640\ufe0f
p3172
aa(lp3173
Vwoman-with-ball-type-6
p3174
aV\u26f9\U0001f3ff\u200d\u2640\ufe0f
p3175
aa(lp3176
Vweight-lifter
p3177
aV\U0001f3cb\ufe0f
p3178
aa(lp3179
Vweight-lifter-type-1-2
p3180
aV\U0001f3cb\U0001f3fb
p3181
aa(lp3182
Vweight-lifter-type-3
p3183
aV\U0001f3cb\U0001f3fc
p3184
aa(lp3185
Vweight-lifter-type-4
p3186
aV\U0001f3cb\U0001f3fd
p3187
aa(lp3188
Vweight-lifter-type-5
p3189
aV\U0001f3cb\U0001f3fe
p3190
aa(lp3191
Vweight-lifter-type-6
p3192
aV\U0001f3cb\U0001f3ff
p3193
aa(lp3194
Vman-weight-lifting
p3195
aV\U0001f3cb\ufe0f\u200d\u2642\ufe0f
p3196
aa(lp3197
Vman-weight-lifting-type-1-2
p3198
aV\U0001f3cb\U0001f3fb\u200d\u2642\ufe0f
p3199
aa(lp3200
Vman-weight-lifting-type-3
p3201
aV\U0001f3cb\U0001f3fc\u200d\u2642\ufe0f
p3202
aa(lp3203
Vman-weight-lifting-type-4
p3204
aV\U0001f3cb\U0001f3fd\u200d\u2642\ufe0f
p3205
aa(lp3206
Vman-weight-lifting-type-5
p3207
aV\U0001f3cb\U0001f3fe\u200d\u2642\ufe0f
p3208
aa(lp3209
Vman-weight-lifting-type-6
p3210
aV\U0001f3cb\U0001f3ff\u200d\u2642\ufe0f
p3211
aa(lp3212
Vwoman-weight-lifting
p3213
aV\U0001f3cb\ufe0f\u200d\u2640\ufe0f
p3214
aa(lp3215
Vwoman-weight-lifting-type-1-2
p3216
aV\U0001f3cb\U0001f3fb\u200d\u2640\ufe0f
p3217
aa(lp3218
Vwoman-weight-lifting-type-3
p3219
aV\U0001f3cb\U0001f3fc\u200d\u2640\ufe0f
p3220
aa(lp3221
Vwoman-weight-lifting-type-4
p3222
aV\U0001f3cb\U0001f3fd\u200d\u2640\ufe0f
p3223
aa(lp3224
Vwoman-weight-lifting-type-5
p3225
aV\U0001f3cb\U0001f3fe\u200d\u2640\ufe0f
p3226
aa(lp3227
Vwoman-weight-lifting-type-6
p3228
aV\U0001f3cb\U0001f3ff\u200d\u2640\ufe0f
p3229
aa(lp3230
Vbicyclist
p3231
aV\U0001f6b4
p3232
aa(lp3233
Vbicyclist-type-1-2
p3234
aV\U0001f6b4\U0001f3fb
p3235
aa(lp3236
Vbicyclist-type-3
p3237
aV\U0001f6b4\U0001f3fc
p3238
aa(lp3239
Vbicyclist-type-4
p3240
aV\U0001f6b4\U0001f3fd
p3241
aa(lp3242
Vbicyclist-type-5
p3243
aV\U0001f6b4\U0001f3fe
p3244
aa(lp3245
Vbicyclist-type-6
p3246
aV\U0001f6b4\U0001f3ff
p3247
aa(lp3248
Vman-biking
p3249
aV\U0001f6b4\u200d\u2642\ufe0f
p3250
aa(lp3251
Vman-biking-type-1-2
p3252
aV\U0001f6b4\U0001f3fb\u200d\u2642\ufe0f
p3253
aa(lp3254
Vman-biking-type-3
p3255
aV\U0001f6b4\U0001f3fc\u200d\u2642\ufe0f
p3256
aa(lp3257
Vman-biking-type-4
p3258
aV\U0001f6b4\U0001f3fd\u200d\u2642\ufe0f
p3259
aa(lp3260
Vman-biking-type-5
p3261
aV\U0001f6b4\U0001f3fe\u200d\u2642\ufe0f
p3262
aa(lp3263
Vman-biking-type-6
p3264
aV\U0001f6b4\U0001f3ff\u200d\u2642\ufe0f
p3265
aa(lp3266
Vwoman-biking
p3267
aV\U0001f6b4\u200d\u2640\ufe0f
p3268
aa(lp3269
Vwoman-biking-type-1-2
p3270
aV\U0001f6b4\U0001f3fb\u200d\u2640\ufe0f
p3271
aa(lp3272
Vwoman-biking-type-3
p3273
aV\U0001f6b4\U0001f3fc\u200d\u2640\ufe0f
p3274
aa(lp3275
Vwoman-biking-type-4
p3276
aV\U0001f6b4\U0001f3fd\u200d\u2640\ufe0f
p3277
aa(lp3278
Vwoman-biking-type-5
p3279
aV\U0001f6b4\U0001f3fe\u200d\u2640\ufe0f
p3280
aa(lp3281
Vwoman-biking-type-6
p3282
aV\U0001f6b4\U0001f3ff\u200d\u2640\ufe0f
p3283
aa(lp3284
Vmountain-bicyclist
p3285
aV\U0001f6b5
p3286
aa(lp3287
Vmountain-bicyclist-type-1-2
p3288
aV\U0001f6b5\U0001f3fb
p3289
aa(lp3290
Vmountain-bicyclist-type-3
p3291
aV\U0001f6b5\U0001f3fc
p3292
aa(lp3293
Vmountain-bicyclist-type-4
p3294
aV\U0001f6b5\U0001f3fd
p3295
aa(lp3296
Vmountain-bicyclist-type-5
p3297
aV\U0001f6b5\U0001f3fe
p3298
aa(lp3299
Vmountain-bicyclist-type-6
p3300
aV\U0001f6b5\U0001f3ff
p3301
aa(lp3302
Vman-mountain-biking
p3303
aV\U0001f6b5\u200d\u2642\ufe0f
p3304
aa(lp3305
Vman-mountain-biking-type-1-2
p3306
aV\U0001f6b5\U0001f3fb\u200d\u2642\ufe0f
p3307
aa(lp3308
Vman-mountain-biking-type-3
p3309
aV\U0001f6b5\U0001f3fc\u200d\u2642\ufe0f
p3310
aa(lp3311
Vman-mountain-biking-type-4
p3312
aV\U0001f6b5\U0001f3fd\u200d\u2642\ufe0f
p3313
aa(lp3314
Vman-mountain-biking-type-5
p3315
aV\U0001f6b5\U0001f3fe\u200d\u2642\ufe0f
p3316
aa(lp3317
Vman-mountain-biking-type-6
p3318
aV\U0001f6b5\U0001f3ff\u200d\u2642\ufe0f
p3319
aa(lp3320
Vwoman-mountain-biking
p3321
aV\U0001f6b5\u200d\u2640\ufe0f
p3322
aa(lp3323
Vwoman-mountain-biking-type-1-2
p3324
aV\U0001f6b5\U0001f3fb\u200d\u2640\ufe0f
p3325
aa(lp3326
Vwoman-mountain-biking-type-3
p3327
aV\U0001f6b5\U0001f3fc\u200d\u2640\ufe0f
p3328
aa(lp3329
Vwoman-mountain-biking-type-4
p3330
aV\U0001f6b5\U0001f3fd\u200d\u2640\ufe0f
p3331
aa(lp3332
Vwoman-mountain-biking-type-5
p3333
aV\U0001f6b5\U0001f3fe\u200d\u2640\ufe0f
p3334
aa(lp3335
Vwoman-mountain-biking-type-6
p3336
aV\U0001f6b5\U0001f3ff\u200d\u2640\ufe0f
p3337
aa(lp3338
Vracing-car
p3339
aV\U0001f3ce\ufe0f
p3340
aa(lp3341
Vracing-motorcycle
p3342
aV\U0001f3cd\ufe0f
p3343
aa(lp3344
Vperson-doing-cartwheel
p3345
aV\U0001f938
p3346
aa(lp3347
Vperson-doing-cartwheel-type-1-2
p3348
aV\U0001f938\U0001f3fb
p3349
aa(lp3350
Vperson-doing-cartwheel-type-3
p3351
aV\U0001f938\U0001f3fc
p3352
aa(lp3353
Vperson-doing-cartwheel-type-4
p3354
aV\U0001f938\U0001f3fd
p3355
aa(lp3356
Vperson-doing-cartwheel-type-5
p3357
aV\U0001f938\U0001f3fe
p3358
aa(lp3359
Vperson-doing-cartwheel-type-6
p3360
aV\U0001f938\U0001f3ff
p3361
aa(lp3362
Vman-doing-cartwheel
p3363
aV\U0001f938\u200d\u2642\ufe0f
p3364
aa(lp3365
Vman-doing-cartwheel-type-1-2
p3366
aV\U0001f938\U0001f3fb\u200d\u2642\ufe0f
p3367
aa(lp3368
Vman-doing-cartwheel-type-3
p3369
aV\U0001f938\U0001f3fc\u200d\u2642\ufe0f
p3370
aa(lp3371
Vman-doing-cartwheel-type-4
p3372
aV\U0001f938\U0001f3fd\u200d\u2642\ufe0f
p3373
aa(lp3374
Vman-doing-cartwheel-type-5
p3375
aV\U0001f938\U0001f3fe\u200d\u2642\ufe0f
p3376
aa(lp3377
Vman-doing-cartwheel-type-6
p3378
aV\U0001f938\U0001f3ff\u200d\u2642\ufe0f
p3379
aa(lp3380
Vwoman-doing-cartwheel
p3381
aV\U0001f938\u200d\u2640\ufe0f
p3382
aa(lp3383
Vwoman-doing-cartwheel-type-1-2
p3384
aV\U0001f938\U0001f3fb\u200d\u2640\ufe0f
p3385
aa(lp3386
Vwoman-doing-cartwheel-type-3
p3387
aV\U0001f938\U0001f3fc\u200d\u2640\ufe0f
p3388
aa(lp3389
Vwoman-doing-cartwheel-type-4
p3390
aV\U0001f938\U0001f3fd\u200d\u2640\ufe0f
p3391
aa(lp3392
Vwoman-doing-cartwheel-type-5
p3393
aV\U0001f938\U0001f3fe\u200d\u2640\ufe0f
p3394
aa(lp3395
Vwoman-doing-cartwheel-type-6
p3396
aV\U0001f938\U0001f3ff\u200d\u2640\ufe0f
p3397
aa(lp3398
Vwrestlers
p3399
aV\U0001f93c
p3400
aa(lp3401
Vmen-wrestling
p3402
aV\U0001f93c\u200d\u2642\ufe0f
p3403
aa(lp3404
Vwomen-wrestling
p3405
aV\U0001f93c\u200d\u2640\ufe0f
p3406
aa(lp3407
Vwater-polo
p3408
aV\U0001f93d
p3409
aa(lp3410
Vwater-polo-type-1-2
p3411
aV\U0001f93d\U0001f3fb
p3412
aa(lp3413
Vwater-polo-type-3
p3414
aV\U0001f93d\U0001f3fc
p3415
aa(lp3416
Vwater-polo-type-4
p3417
aV\U0001f93d\U0001f3fd
p3418
aa(lp3419
Vwater-polo-type-5
p3420
aV\U0001f93d\U0001f3fe
p3421
aa(lp3422
Vwater-polo-type-6
p3423
aV\U0001f93d\U0001f3ff
p3424
aa(lp3425
Vman-playing-water-polo
p3426
aV\U0001f93d\u200d\u2642\ufe0f
p3427
aa(lp3428
Vman-playing-water-polo-type-1-2
p3429
aV\U0001f93d\U0001f3fb\u200d\u2642\ufe0f
p3430
aa(lp3431
Vman-playing-water-polo-type-3
p3432
aV\U0001f93d\U0001f3fc\u200d\u2642\ufe0f
p3433
aa(lp3434
Vman-playing-water-polo-type-4
p3435
aV\U0001f93d\U0001f3fd\u200d\u2642\ufe0f
p3436
aa(lp3437
Vman-playing-water-polo-type-5
p3438
aV\U0001f93d\U0001f3fe\u200d\u2642\ufe0f
p3439
aa(lp3440
Vman-playing-water-polo-type-6
p3441
aV\U0001f93d\U0001f3ff\u200d\u2642\ufe0f
p3442
aa(lp3443
Vwoman-playing-water-polo
p3444
aV\U0001f93d\u200d\u2640\ufe0f
p3445
aa(lp3446
Vwoman-playing-water-polo-type-1-2
p3447
aV\U0001f93d\U0001f3fb\u200d\u2640\ufe0f
p3448
aa(lp3449
Vwoman-playing-water-polo-type-3
p3450
aV\U0001f93d\U0001f3fc\u200d\u2640\ufe0f
p3451
aa(lp3452
Vwoman-playing-water-polo-type-4
p3453
aV\U0001f93d\U0001f3fd\u200d\u2640\ufe0f
p3454
aa(lp3455
Vwoman-playing-water-polo-type-5
p3456
aV\U0001f93d\U0001f3fe\u200d\u2640\ufe0f
p3457
aa(lp3458
Vwoman-playing-water-polo-type-6
p3459
aV\U0001f93d\U0001f3ff\u200d\u2640\ufe0f
p3460
aa(lp3461
Vhandball
p3462
aV\U0001f93e
p3463
aa(lp3464
Vhandball-type-1-2
p3465
aV\U0001f93e\U0001f3fb
p3466
aa(lp3467
Vhandball-type-3
p3468
aV\U0001f93e\U0001f3fc
p3469
aa(lp3470
Vhandball-type-4
p3471
aV\U0001f93e\U0001f3fd
p3472
aa(lp3473
Vhandball-type-5
p3474
aV\U0001f93e\U0001f3fe
p3475
aa(lp3476
Vhandball-type-6
p3477
aV\U0001f93e\U0001f3ff
p3478
aa(lp3479
Vman-playing-handball
p3480
aV\U0001f93e\u200d\u2642\ufe0f
p3481
aa(lp3482
Vman-playing-handball-type-1-2
p3483
aV\U0001f93e\U0001f3fb\u200d\u2642\ufe0f
p3484
aa(lp3485
Vman-playing-handball-type-3
p3486
aV\U0001f93e\U0001f3fc\u200d\u2642\ufe0f
p3487
aa(lp3488
Vman-playing-handball-type-4
p3489
aV\U0001f93e\U0001f3fd\u200d\u2642\ufe0f
p3490
aa(lp3491
Vman-playing-handball-type-5
p3492
aV\U0001f93e\U0001f3fe\u200d\u2642\ufe0f
p3493
aa(lp3494
Vman-playing-handball-type-6
p3495
aV\U0001f93e\U0001f3ff\u200d\u2642\ufe0f
p3496
aa(lp3497
Vwoman-playing-handball
p3498
aV\U0001f93e\u200d\u2640\ufe0f
p3499
aa(lp3500
Vwoman-playing-handball-type-1-2
p3501
aV\U0001f93e\U0001f3fb\u200d\u2640\ufe0f
p3502
aa(lp3503
Vwoman-playing-handball-type-3
p3504
aV\U0001f93e\U0001f3fc\u200d\u2640\ufe0f
p3505
aa(lp3506
Vwoman-playing-handball-type-4
p3507
aV\U0001f93e\U0001f3fd\u200d\u2640\ufe0f
p3508
aa(lp3509
Vwoman-playing-handball-type-5
p3510
aV\U0001f93e\U0001f3fe\u200d\u2640\ufe0f
p3511
aa(lp3512
Vwoman-playing-handball-type-6
p3513
aV\U0001f93e\U0001f3ff\u200d\u2640\ufe0f
p3514
aa(lp3515
Vjuggling
p3516
aV\U0001f939
p3517
aa(lp3518
Vjuggling-type-1-2
p3519
aV\U0001f939\U0001f3fb
p3520
aa(lp3521
Vjuggling-type-3
p3522
aV\U0001f939\U0001f3fc
p3523
aa(lp3524
Vjuggling-type-4
p3525
aV\U0001f939\U0001f3fd
p3526
aa(lp3527
Vjuggling-type-5
p3528
aV\U0001f939\U0001f3fe
p3529
aa(lp3530
Vjuggling-type-6
p3531
aV\U0001f939\U0001f3ff
p3532
aa(lp3533
Vman-juggling
p3534
aV\U0001f939\u200d\u2642\ufe0f
p3535
aa(lp3536
Vman-juggling-type-1-2
p3537
aV\U0001f939\U0001f3fb\u200d\u2642\ufe0f
p3538
aa(lp3539
Vman-juggling-type-3
p3540
aV\U0001f939\U0001f3fc\u200d\u2642\ufe0f
p3541
aa(lp3542
Vman-juggling-type-4
p3543
aV\U0001f939\U0001f3fd\u200d\u2642\ufe0f
p3544
aa(lp3545
Vman-juggling-type-5
p3546
aV\U0001f939\U0001f3fe\u200d\u2642\ufe0f
p3547
aa(lp3548
Vman-juggling-type-6
p3549
aV\U0001f939\U0001f3ff\u200d\u2642\ufe0f
p3550
aa(lp3551
Vwoman-juggling
p3552
aV\U0001f939\u200d\u2640\ufe0f
p3553
aa(lp3554
Vwoman-juggling-type-1-2
p3555
aV\U0001f939\U0001f3fb\u200d\u2640\ufe0f
p3556
aa(lp3557
Vwoman-juggling-type-3
p3558
aV\U0001f939\U0001f3fc\u200d\u2640\ufe0f
p3559
aa(lp3560
Vwoman-juggling-type-4
p3561
aV\U0001f939\U0001f3fd\u200d\u2640\ufe0f
p3562
aa(lp3563
Vwoman-juggling-type-5
p3564
aV\U0001f939\U0001f3fe\u200d\u2640\ufe0f
p3565
aa(lp3566
Vwoman-juggling-type-6
p3567
aV\U0001f939\U0001f3ff\u200d\u2640\ufe0f
p3568
aa(lp3569
Vman-and-woman-holding-hands
p3570
aV\U0001f46b
p3571
aa(lp3572
Vtwo-men-holding-hands
p3573
aV\U0001f46c
p3574
aa(lp3575
Vtwo-women-holding-hands
p3576
aV\U0001f46d
p3577
aa(lp3578
Vkiss
p3579
aV\U0001f48f
p3580
aa(lp3581
Vkiss-woman-man
p3582
aV\U0001f469\u200d\u2764\ufe0f\u200d\U0001f48b\u200d\U0001f468
p3583
aa(lp3584
Vkiss-man-man
p3585
aV\U0001f468\u200d\u2764\ufe0f\u200d\U0001f48b\u200d\U0001f468
p3586
aa(lp3587
Vkiss-woman-woman
p3588
aV\U0001f469\u200d\u2764\ufe0f\u200d\U0001f48b\u200d\U0001f469
p3589
aa(lp3590
Vcouple-with-heart
p3591
aV\U0001f491
p3592
aa(lp3593
Vcouple-with-heart-woman-man
p3594
aV\U0001f469\u200d\u2764\ufe0f\u200d\U0001f468
p3595
aa(lp3596
Vcouple-with-heart-man-man
p3597
aV\U0001f468\u200d\u2764\ufe0f\u200d\U0001f468
p3598
aa(lp3599
Vcouple-with-heart-woman-woman
p3600
aV\U0001f469\u200d\u2764\ufe0f\u200d\U0001f469
p3601
aa(lp3602
Vfamily
p3603
aV\U0001f46a
p3604
aa(lp3605
Vfamily-man-woman-boy
p3606
aV\U0001f468\u200d\U0001f469\u200d\U0001f466
p3607
aa(lp3608
Vfamily-man-woman-girl
p3609
aV\U0001f468\u200d\U0001f469\u200d\U0001f467
p3610
aa(lp3611
Vfamily-man-woman-girl-boy
p3612
aV\U0001f468\u200d\U0001f469\u200d\U0001f467\u200d\U0001f466
p3613
aa(lp3614
Vfamily-man-woman-boy-boy
p3615
aV\U0001f468\u200d\U0001f469\u200d\U0001f466\u200d\U0001f466
p3616
aa(lp3617
Vfamily-man-woman-girl-girl
p3618
aV\U0001f468\u200d\U0001f469\u200d\U0001f467\u200d\U0001f467
p3619
aa(lp3620
Vfamily-man-man-boy
p3621
aV\U0001f468\u200d\U0001f468\u200d\U0001f466
p3622
aa(lp3623
Vfamily-man-man-girl
p3624
aV\U0001f468\u200d\U0001f468\u200d\U0001f467
p3625
aa(lp3626
Vfamily-man-man-girl-boy
p3627
aV\U0001f468\u200d\U0001f468\u200d\U0001f467\u200d\U0001f466
p3628
aa(lp3629
Vfamily-man-man-boy-boy
p3630
aV\U0001f468\u200d\U0001f468\u200d\U0001f466\u200d\U0001f466
p3631
aa(lp3632
Vfamily-man-man-girl-girl
p3633
aV\U0001f468\u200d\U0001f468\u200d\U0001f467\u200d\U0001f467
p3634
aa(lp3635
Vfamily-woman-woman-boy
p3636
aV\U0001f469\u200d\U0001f469\u200d\U0001f466
p3637
aa(lp3638
Vfamily-woman-woman-girl
p3639
aV\U0001f469\u200d\U0001f469\u200d\U0001f467
p3640
aa(lp3641
Vfamily-woman-woman-girl-boy
p3642
aV\U0001f469\u200d\U0001f469\u200d\U0001f467\u200d\U0001f466
p3643
aa(lp3644
Vfamily-woman-woman-boy-boy
p3645
aV\U0001f469\u200d\U0001f469\u200d\U0001f466\u200d\U0001f466
p3646
aa(lp3647
Vfamily-woman-woman-girl-girl
p3648
aV\U0001f469\u200d\U0001f469\u200d\U0001f467\u200d\U0001f467
p3649
aa(lp3650
Vfamily-man-boy
p3651
aV\U0001f468\u200d\U0001f466
p3652
aa(lp3653
Vfamily-man-boy-boy
p3654
aV\U0001f468\u200d\U0001f466\u200d\U0001f466
p3655
aa(lp3656
Vfamily-man-girl
p3657
aV\U0001f468\u200d\U0001f467
p3658
aa(lp3659
Vfamily-man-girl-boy
p3660
aV\U0001f468\u200d\U0001f467\u200d\U0001f466
p3661
aa(lp3662
Vfamily-man-girl-girl
p3663
aV\U0001f468\u200d\U0001f467\u200d\U0001f467
p3664
aa(lp3665
Vfamily-woman-boy
p3666
aV\U0001f469\u200d\U0001f466
p3667
aa(lp3668
Vfamily-woman-boy-boy
p3669
aV\U0001f469\u200d\U0001f466\u200d\U0001f466
p3670
aa(lp3671
Vfamily-woman-girl
p3672
aV\U0001f469\u200d\U0001f467
p3673
aa(lp3674
Vfamily-woman-girl-boy
p3675
aV\U0001f469\u200d\U0001f467\u200d\U0001f466
p3676
aa(lp3677
Vfamily-woman-girl-girl
p3678
aV\U0001f469\u200d\U0001f467\u200d\U0001f467
p3679
aa(lp3680
Vselfie
p3681
aV\U0001f933
p3682
aa(lp3683
Vselfie-type-1-2
p3684
aV\U0001f933\U0001f3fb
p3685
aa(lp3686
Vselfie-type-3
p3687
aV\U0001f933\U0001f3fc
p3688
aa(lp3689
Vselfie-type-4
p3690
aV\U0001f933\U0001f3fd
p3691
aa(lp3692
Vselfie-type-5
p3693
aV\U0001f933\U0001f3fe
p3694
aa(lp3695
Vselfie-type-6
p3696
aV\U0001f933\U0001f3ff
p3697
aa(lp3698
Vflexed-biceps
p3699
aV\U0001f4aa
p3700
aa(lp3701
Vflexed-biceps-type-1-2
p3702
aV\U0001f4aa\U0001f3fb
p3703
aa(lp3704
Vflexed-biceps-type-3
p3705
aV\U0001f4aa\U0001f3fc
p3706
aa(lp3707
Vflexed-biceps-type-4
p3708
aV\U0001f4aa\U0001f3fd
p3709
aa(lp3710
Vflexed-biceps-type-5
p3711
aV\U0001f4aa\U0001f3fe
p3712
aa(lp3713
Vflexed-biceps-type-6
p3714
aV\U0001f4aa\U0001f3ff
p3715
aa(lp3716
Vwhite-left-pointing-backhand-index
p3717
aV\U0001f448
p3718
aa(lp3719
Vwhite-left-pointing-backhand-index-type-1-2
p3720
aV\U0001f448\U0001f3fb
p3721
aa(lp3722
Vwhite-left-pointing-backhand-index-type-3
p3723
aV\U0001f448\U0001f3fc
p3724
aa(lp3725
Vwhite-left-pointing-backhand-index-type-4
p3726
aV\U0001f448\U0001f3fd
p3727
aa(lp3728
Vwhite-left-pointing-backhand-index-type-5
p3729
aV\U0001f448\U0001f3fe
p3730
aa(lp3731
Vwhite-left-pointing-backhand-index-type-6
p3732
aV\U0001f448\U0001f3ff
p3733
aa(lp3734
Vwhite-right-pointing-backhand-index
p3735
aV\U0001f449
p3736
aa(lp3737
Vwhite-right-pointing-backhand-index-type-1-2
p3738
aV\U0001f449\U0001f3fb
p3739
aa(lp3740
Vwhite-right-pointing-backhand-index-type-3
p3741
aV\U0001f449\U0001f3fc
p3742
aa(lp3743
Vwhite-right-pointing-backhand-index-type-4
p3744
aV\U0001f449\U0001f3fd
p3745
aa(lp3746
Vwhite-right-pointing-backhand-index-type-5
p3747
aV\U0001f449\U0001f3fe
p3748
aa(lp3749
Vwhite-right-pointing-backhand-index-type-6
p3750
aV\U0001f449\U0001f3ff
p3751
aa(lp3752
Vwhite-up-pointing-index
p3753
aV\u261d\ufe0f
p3754
aa(lp3755
Vwhite-up-pointing-index-type-1-2
p3756
aV\u261d\U0001f3fb
p3757
aa(lp3758
Vwhite-up-pointing-index-type-3
p3759
aV\u261d\U0001f3fc
p3760
aa(lp3761
Vwhite-up-pointing-index-type-4
p3762
aV\u261d\U0001f3fd
p3763
aa(lp3764
Vwhite-up-pointing-index-type-5
p3765
aV\u261d\U0001f3fe
p3766
aa(lp3767
Vwhite-up-pointing-index-type-6
p3768
aV\u261d\U0001f3ff
p3769
aa(lp3770
Vwhite-up-pointing-backhand-index
p3771
aV\U0001f446
p3772
aa(lp3773
Vwhite-up-pointing-backhand-index-type-1-2
p3774
aV\U0001f446\U0001f3fb
p3775
aa(lp3776
Vwhite-up-pointing-backhand-index-type-3
p3777
aV\U0001f446\U0001f3fc
p3778
aa(lp3779
Vwhite-up-pointing-backhand-index-type-4
p3780
aV\U0001f446\U0001f3fd
p3781
aa(lp3782
Vwhite-up-pointing-backhand-index-type-5
p3783
aV\U0001f446\U0001f3fe
p3784
aa(lp3785
Vwhite-up-pointing-backhand-index-type-6
p3786
aV\U0001f446\U0001f3ff
p3787
aa(lp3788
Vreversed-hand-with-middle-finger-extended
p3789
aV\U0001f595
p3790
aa(lp3791
Vreversed-hand-with-middle-finger-extended-type-1-2
p3792
aV\U0001f595\U0001f3fb
p3793
aa(lp3794
Vreversed-hand-with-middle-finger-extended-type-3
p3795
aV\U0001f595\U0001f3fc
p3796
aa(lp3797
Vreversed-hand-with-middle-finger-extended-type-4
p3798
aV\U0001f595\U0001f3fd
p3799
aa(lp3800
Vreversed-hand-with-middle-finger-extended-type-5
p3801
aV\U0001f595\U0001f3fe
p3802
aa(lp3803
Vreversed-hand-with-middle-finger-extended-type-6
p3804
aV\U0001f595\U0001f3ff
p3805
aa(lp3806
Vwhite-down-pointing-backhand-index
p3807
aV\U0001f447
p3808
aa(lp3809
Vwhite-down-pointing-backhand-index-type-1-2
p3810
aV\U0001f447\U0001f3fb
p3811
aa(lp3812
Vwhite-down-pointing-backhand-index-type-3
p3813
aV\U0001f447\U0001f3fc
p3814
aa(lp3815
Vwhite-down-pointing-backhand-index-type-4
p3816
aV\U0001f447\U0001f3fd
p3817
aa(lp3818
Vwhite-down-pointing-backhand-index-type-5
p3819
aV\U0001f447\U0001f3fe
p3820
aa(lp3821
Vwhite-down-pointing-backhand-index-type-6
p3822
aV\U0001f447\U0001f3ff
p3823
aa(lp3824
Vvictory-hand
p3825
aV\u270c\ufe0f
p3826
aa(lp3827
Vvictory-hand-type-1-2
p3828
aV\u270c\U0001f3fb
p3829
aa(lp3830
Vvictory-hand-type-3
p3831
aV\u270c\U0001f3fc
p3832
aa(lp3833
Vvictory-hand-type-4
p3834
aV\u270c\U0001f3fd
p3835
aa(lp3836
Vvictory-hand-type-5
p3837
aV\u270c\U0001f3fe
p3838
aa(lp3839
Vvictory-hand-type-6
p3840
aV\u270c\U0001f3ff
p3841
aa(lp3842
Vhand-with-index-and-middle-fingers-crossed
p3843
aV\U0001f91e
p3844
aa(lp3845
Vhand-with-index-and-middle-fingers-crossed-type-1-2
p3846
aV\U0001f91e\U0001f3fb
p3847
aa(lp3848
Vhand-with-index-and-middle-fingers-crossed-type-3
p3849
aV\U0001f91e\U0001f3fc
p3850
aa(lp3851
Vhand-with-index-and-middle-fingers-crossed-type-4
p3852
aV\U0001f91e\U0001f3fd
p3853
aa(lp3854
Vhand-with-index-and-middle-fingers-crossed-type-5
p3855
aV\U0001f91e\U0001f3fe
p3856
aa(lp3857
Vhand-with-index-and-middle-fingers-crossed-type-6
p3858
aV\U0001f91e\U0001f3ff
p3859
aa(lp3860
Vraised-hand-with-part-between-middle-and-ring-fingers
p3861
aV\U0001f596
p3862
aa(lp3863
Vraised-hand-with-part-between-middle-and-ring-fingers-type-1-2
p3864
aV\U0001f596\U0001f3fb
p3865
aa(lp3866
Vraised-hand-with-part-between-middle-and-ring-fingers-type-3
p3867
aV\U0001f596\U0001f3fc
p3868
aa(lp3869
Vraised-hand-with-part-between-middle-and-ring-fingers-type-4
p3870
aV\U0001f596\U0001f3fd
p3871
aa(lp3872
Vraised-hand-with-part-between-middle-and-ring-fingers-type-5
p3873
aV\U0001f596\U0001f3fe
p3874
aa(lp3875
Vraised-hand-with-part-between-middle-and-ring-fingers-type-6
p3876
aV\U0001f596\U0001f3ff
p3877
aa(lp3878
Vsign-of-the-horns
p3879
aV\U0001f918
p3880
aa(lp3881
Vsign-of-the-horns-type-1-2
p3882
aV\U0001f918\U0001f3fb
p3883
aa(lp3884
Vsign-of-the-horns-type-3
p3885
aV\U0001f918\U0001f3fc
p3886
aa(lp3887
Vsign-of-the-horns-type-4
p3888
aV\U0001f918\U0001f3fd
p3889
aa(lp3890
Vsign-of-the-horns-type-5
p3891
aV\U0001f918\U0001f3fe
p3892
aa(lp3893
Vsign-of-the-horns-type-6
p3894
aV\U0001f918\U0001f3ff
p3895
aa(lp3896
Vcall-me-hand
p3897
aV\U0001f919
p3898
aa(lp3899
Vcall-me-hand-type-1-2
p3900
aV\U0001f919\U0001f3fb
p3901
aa(lp3902
Vcall-me-hand-type-3
p3903
aV\U0001f919\U0001f3fc
p3904
aa(lp3905
Vcall-me-hand-type-4
p3906
aV\U0001f919\U0001f3fd
p3907
aa(lp3908
Vcall-me-hand-type-5
p3909
aV\U0001f919\U0001f3fe
p3910
aa(lp3911
Vcall-me-hand-type-6
p3912
aV\U0001f919\U0001f3ff
p3913
aa(lp3914
Vraised-hand-with-fingers-splayed
p3915
aV\U0001f590\ufe0f
p3916
aa(lp3917
Vraised-hand-with-fingers-splayed-type-1-2
p3918
aV\U0001f590\U0001f3fb
p3919
aa(lp3920
Vraised-hand-with-fingers-splayed-type-3
p3921
aV\U0001f590\U0001f3fc
p3922
aa(lp3923
Vraised-hand-with-fingers-splayed-type-4
p3924
aV\U0001f590\U0001f3fd
p3925
aa(lp3926
Vraised-hand-with-fingers-splayed-type-5
p3927
aV\U0001f590\U0001f3fe
p3928
aa(lp3929
Vraised-hand-with-fingers-splayed-type-6
p3930
aV\U0001f590\U0001f3ff
p3931
aa(lp3932
Vraised-hand
p3933
aV\u270b
p3934
aa(lp3935
Vraised-hand-type-1-2
p3936
aV\u270b\U0001f3fb
p3937
aa(lp3938
Vraised-hand-type-3
p3939
aV\u270b\U0001f3fc
p3940
aa(lp3941
Vraised-hand-type-4
p3942
aV\u270b\U0001f3fd
p3943
aa(lp3944
Vraised-hand-type-5
p3945
aV\u270b\U0001f3fe
p3946
aa(lp3947
Vraised-hand-type-6
p3948
aV\u270b\U0001f3ff
p3949
aa(lp3950
Vok-hand-sign
p3951
aV\U0001f44c
p3952
aa(lp3953
Vok-hand-sign-type-1-2
p3954
aV\U0001f44c\U0001f3fb
p3955
aa(lp3956
Vok-hand-sign-type-3
p3957
aV\U0001f44c\U0001f3fc
p3958
aa(lp3959
Vok-hand-sign-type-4
p3960
aV\U0001f44c\U0001f3fd
p3961
aa(lp3962
Vok-hand-sign-type-5
p3963
aV\U0001f44c\U0001f3fe
p3964
aa(lp3965
Vok-hand-sign-type-6
p3966
aV\U0001f44c\U0001f3ff
p3967
aa(lp3968
Vthumbs-up-sign
p3969
aV\U0001f44d
p3970
aa(lp3971
Vthumbs-up-sign-type-1-2
p3972
aV\U0001f44d\U0001f3fb
p3973
aa(lp3974
Vthumbs-up-sign-type-3
p3975
aV\U0001f44d\U0001f3fc
p3976
aa(lp3977
Vthumbs-up-sign-type-4
p3978
aV\U0001f44d\U0001f3fd
p3979
aa(lp3980
Vthumbs-up-sign-type-5
p3981
aV\U0001f44d\U0001f3fe
p3982
aa(lp3983
Vthumbs-up-sign-type-6
p3984
aV\U0001f44d\U0001f3ff
p3985
aa(lp3986
Vthumbs-down-sign
p3987
aV\U0001f44e
p3988
aa(lp3989
Vthumbs-down-sign-type-1-2
p3990
aV\U0001f44e\U0001f3fb
p3991
aa(lp3992
Vthumbs-down-sign-type-3
p3993
aV\U0001f44e\U0001f3fc
p3994
aa(lp3995
Vthumbs-down-sign-type-4
p3996
aV\U0001f44e\U0001f3fd
p3997
aa(lp3998
Vthumbs-down-sign-type-5
p3999
aV\U0001f44e\U0001f3fe
p4000
aa(lp4001
Vthumbs-down-sign-type-6
p4002
aV\U0001f44e\U0001f3ff
p4003
aa(lp4004
Vraised-fist
p4005
aV\u270a
p4006
aa(lp4007
Vraised-fist-type-1-2
p4008
aV\u270a\U0001f3fb
p4009
aa(lp4010
Vraised-fist-type-3
p4011
aV\u270a\U0001f3fc
p4012
aa(lp4013
Vraised-fist-type-4
p4014
aV\u270a\U0001f3fd
p4015
aa(lp4016
Vraised-fist-type-5
p4017
aV\u270a\U0001f3fe
p4018
aa(lp4019
Vraised-fist-type-6
p4020
aV\u270a\U0001f3ff
p4021
aa(lp4022
Vfisted-hand-sign
p4023
aV\U0001f44a
p4024
aa(lp4025
Vfisted-hand-sign-type-1-2
p4026
aV\U0001f44a\U0001f3fb
p4027
aa(lp4028
Vfisted-hand-sign-type-3
p4029
aV\U0001f44a\U0001f3fc
p4030
aa(lp4031
Vfisted-hand-sign-type-4
p4032
aV\U0001f44a\U0001f3fd
p4033
aa(lp4034
Vfisted-hand-sign-type-5
p4035
aV\U0001f44a\U0001f3fe
p4036
aa(lp4037
Vfisted-hand-sign-type-6
p4038
aV\U0001f44a\U0001f3ff
p4039
aa(lp4040
Vleft-facing-fist
p4041
aV\U0001f91b
p4042
aa(lp4043
Vleft-facing-fist-type-1-2
p4044
aV\U0001f91b\U0001f3fb
p4045
aa(lp4046
Vleft-facing-fist-type-3
p4047
aV\U0001f91b\U0001f3fc
p4048
aa(lp4049
Vleft-facing-fist-type-4
p4050
aV\U0001f91b\U0001f3fd
p4051
aa(lp4052
Vleft-facing-fist-type-5
p4053
aV\U0001f91b\U0001f3fe
p4054
aa(lp4055
Vleft-facing-fist-type-6
p4056
aV\U0001f91b\U0001f3ff
p4057
aa(lp4058
Vright-facing-fist
p4059
aV\U0001f91c
p4060
aa(lp4061
Vright-facing-fist-type-1-2
p4062
aV\U0001f91c\U0001f3fb
p4063
aa(lp4064
Vright-facing-fist-type-3
p4065
aV\U0001f91c\U0001f3fc
p4066
aa(lp4067
Vright-facing-fist-type-4
p4068
aV\U0001f91c\U0001f3fd
p4069
aa(lp4070
Vright-facing-fist-type-5
p4071
aV\U0001f91c\U0001f3fe
p4072
aa(lp4073
Vright-facing-fist-type-6
p4074
aV\U0001f91c\U0001f3ff
p4075
aa(lp4076
Vraised-back-of-hand
p4077
aV\U0001f91a
p4078
aa(lp4079
Vraised-back-of-hand-type-1-2
p4080
aV\U0001f91a\U0001f3fb
p4081
aa(lp4082
Vraised-back-of-hand-type-3
p4083
aV\U0001f91a\U0001f3fc
p4084
aa(lp4085
Vraised-back-of-hand-type-4
p4086
aV\U0001f91a\U0001f3fd
p4087
aa(lp4088
Vraised-back-of-hand-type-5
p4089
aV\U0001f91a\U0001f3fe
p4090
aa(lp4091
Vraised-back-of-hand-type-6
p4092
aV\U0001f91a\U0001f3ff
p4093
aa(lp4094
Vwaving-hand-sign
p4095
aV\U0001f44b
p4096
aa(lp4097
Vwaving-hand-sign-type-1-2
p4098
aV\U0001f44b\U0001f3fb
p4099
aa(lp4100
Vwaving-hand-sign-type-3
p4101
aV\U0001f44b\U0001f3fc
p4102
aa(lp4103
Vwaving-hand-sign-type-4
p4104
aV\U0001f44b\U0001f3fd
p4105
aa(lp4106
Vwaving-hand-sign-type-5
p4107
aV\U0001f44b\U0001f3fe
p4108
aa(lp4109
Vwaving-hand-sign-type-6
p4110
aV\U0001f44b\U0001f3ff
p4111
aa(lp4112
Vi-love-you-hand-sign
p4113
aV\U0001f91f
p4114
aa(lp4115
Vlove-you-gesture-light-skin-tone
p4116
aV\U0001f91f\U0001f3fb
p4117
aa(lp4118
Vlove-you-gesture-medium-light-skin-tone
p4119
aV\U0001f91f\U0001f3fc
p4120
aa(lp4121
Vlove-you-gesture-medium-skin-tone
p4122
aV\U0001f91f\U0001f3fd
p4123
aa(lp4124
Vlove-you-gesture-medium-dark-skin-tone
p4125
aV\U0001f91f\U0001f3fe
p4126
aa(lp4127
Vlove-you-gesture-dark-skin-tone
p4128
aV\U0001f91f\U0001f3ff
p4129
aa(lp4130
Vwriting-hand
p4131
aV\u270d\ufe0f
p4132
aa(lp4133
Vwriting-hand-type-1-2
p4134
aV\u270d\U0001f3fb
p4135
aa(lp4136
Vwriting-hand-type-3
p4137
aV\u270d\U0001f3fc
p4138
aa(lp4139
Vwriting-hand-type-4
p4140
aV\u270d\U0001f3fd
p4141
aa(lp4142
Vwriting-hand-type-5
p4143
aV\u270d\U0001f3fe
p4144
aa(lp4145
Vwriting-hand-type-6
p4146
aV\u270d\U0001f3ff
p4147
aa(lp4148
Vclapping-hands-sign
p4149
aV\U0001f44f
p4150
aa(lp4151
Vclapping-hands-sign-type-1-2
p4152
aV\U0001f44f\U0001f3fb
p4153
aa(lp4154
Vclapping-hands-sign-type-3
p4155
aV\U0001f44f\U0001f3fc
p4156
aa(lp4157
Vclapping-hands-sign-type-4
p4158
aV\U0001f44f\U0001f3fd
p4159
aa(lp4160
Vclapping-hands-sign-type-5
p4161
aV\U0001f44f\U0001f3fe
p4162
aa(lp4163
Vclapping-hands-sign-type-6
p4164
aV\U0001f44f\U0001f3ff
p4165
aa(lp4166
Vopen-hands-sign
p4167
aV\U0001f450
p4168
aa(lp4169
Vopen-hands-sign-type-1-2
p4170
aV\U0001f450\U0001f3fb
p4171
aa(lp4172
Vopen-hands-sign-type-3
p4173
aV\U0001f450\U0001f3fc
p4174
aa(lp4175
Vopen-hands-sign-type-4
p4176
aV\U0001f450\U0001f3fd
p4177
aa(lp4178
Vopen-hands-sign-type-5
p4179
aV\U0001f450\U0001f3fe
p4180
aa(lp4181
Vopen-hands-sign-type-6
p4182
aV\U0001f450\U0001f3ff
p4183
aa(lp4184
Vperson-raising-both-hands-in-celebration
p4185
aV\U0001f64c
p4186
aa(lp4187
Vperson-raising-both-hands-in-celebration-type-1-2
p4188
aV\U0001f64c\U0001f3fb
p4189
aa(lp4190
Vperson-raising-both-hands-in-celebration-type-3
p4191
aV\U0001f64c\U0001f3fc
p4192
aa(lp4193
Vperson-raising-both-hands-in-celebration-type-4
p4194
aV\U0001f64c\U0001f3fd
p4195
aa(lp4196
Vperson-raising-both-hands-in-celebration-type-5
p4197
aV\U0001f64c\U0001f3fe
p4198
aa(lp4199
Vperson-raising-both-hands-in-celebration-type-6
p4200
aV\U0001f64c\U0001f3ff
p4201
aa(lp4202
Vpalms-up-together
p4203
aV\U0001f932
p4204
aa(lp4205
Vpalms-up-together-light-skin-tone
p4206
aV\U0001f932\U0001f3fb
p4207
aa(lp4208
Vpalms-up-together-medium-light-skin-tone
p4209
aV\U0001f932\U0001f3fc
p4210
aa(lp4211
Vpalms-up-together-medium-skin-tone
p4212
aV\U0001f932\U0001f3fd
p4213
aa(lp4214
Vpalms-up-together-medium-dark-skin-tone
p4215
aV\U0001f932\U0001f3fe
p4216
aa(lp4217
Vpalms-up-together-dark-skin-tone
p4218
aV\U0001f932\U0001f3ff
p4219
aa(lp4220
Vperson-with-folded-hands
p4221
aV\U0001f64f
p4222
aa(lp4223
Vperson-with-folded-hands-type-1-2
p4224
aV\U0001f64f\U0001f3fb
p4225
aa(lp4226
Vperson-with-folded-hands-type-3
p4227
aV\U0001f64f\U0001f3fc
p4228
aa(lp4229
Vperson-with-folded-hands-type-4
p4230
aV\U0001f64f\U0001f3fd
p4231
aa(lp4232
Vperson-with-folded-hands-type-5
p4233
aV\U0001f64f\U0001f3fe
p4234
aa(lp4235
Vperson-with-folded-hands-type-6
p4236
aV\U0001f64f\U0001f3ff
p4237
aa(lp4238
Vhandshake
p4239
aV\U0001f91d
p4240
aa(lp4241
Vnail-polish
p4242
aV\U0001f485
p4243
aa(lp4244
Vnail-polish-type-1-2
p4245
aV\U0001f485\U0001f3fb
p4246
aa(lp4247
Vnail-polish-type-3
p4248
aV\U0001f485\U0001f3fc
p4249
aa(lp4250
Vnail-polish-type-4
p4251
aV\U0001f485\U0001f3fd
p4252
aa(lp4253
Vnail-polish-type-5
p4254
aV\U0001f485\U0001f3fe
p4255
aa(lp4256
Vnail-polish-type-6
p4257
aV\U0001f485\U0001f3ff
p4258
aa(lp4259
Vear
p4260
aV\U0001f442
p4261
aa(lp4262
Vear-type-1-2
p4263
aV\U0001f442\U0001f3fb
p4264
aa(lp4265
Vear-type-3
p4266
aV\U0001f442\U0001f3fc
p4267
aa(lp4268
Vear-type-4
p4269
aV\U0001f442\U0001f3fd
p4270
aa(lp4271
Vear-type-5
p4272
aV\U0001f442\U0001f3fe
p4273
aa(lp4274
Vear-type-6
p4275
aV\U0001f442\U0001f3ff
p4276
aa(lp4277
Vnose
p4278
aV\U0001f443
p4279
aa(lp4280
Vnose-type-1-2
p4281
aV\U0001f443\U0001f3fb
p4282
aa(lp4283
Vnose-type-3
p4284
aV\U0001f443\U0001f3fc
p4285
aa(lp4286
Vnose-type-4
p4287
aV\U0001f443\U0001f3fd
p4288
aa(lp4289
Vnose-type-5
p4290
aV\U0001f443\U0001f3fe
p4291
aa(lp4292
Vnose-type-6
p4293
aV\U0001f443\U0001f3ff
p4294
aa(lp4295
Vfootprints
p4296
aV\U0001f463
p4297
aa(lp4298
Veyes
p4299
aV\U0001f440
p4300
aa(lp4301
Veye
p4302
aV\U0001f441\ufe0f
p4303
aa(lp4304
Veye-in-speech-bubble
p4305
aV\U0001f441\ufe0f\u200d\U0001f5e8\ufe0f
p4306
aa(lp4307
Vbrain
p4308
aV\U0001f9e0
p4309
aa(lp4310
Vtongue
p4311
aV\U0001f445
p4312
aa(lp4313
Vmouth
p4314
aV\U0001f444
p4315
aa(lp4316
Vkiss-mark
p4317
aV\U0001f48b
p4318
aa(lp4319
Vheart-with-arrow
p4320
aV\U0001f498
p4321
aa(lp4322
Vheavy-black-heart
p4323
aV\u2764\ufe0f
p4324
aa(lp4325
Vbeating-heart
p4326
aV\U0001f493
p4327
aa(lp4328
Vbroken-heart
p4329
aV\U0001f494
p4330
aa(lp4331
Vtwo-hearts
p4332
aV\U0001f495
p4333
aa(lp4334
Vsparkling-heart
p4335
aV\U0001f496
p4336
aa(lp4337
Vgrowing-heart
p4338
aV\U0001f497
p4339
aa(lp4340
Vblue-heart
p4341
aV\U0001f499
p4342
aa(lp4343
Vgreen-heart
p4344
aV\U0001f49a
p4345
aa(lp4346
Vyellow-heart
p4347
aV\U0001f49b
p4348
aa(lp4349
Vorange-heart
p4350
aV\U0001f9e1
p4351
aa(lp4352
Vpurple-heart
p4353
aV\U0001f49c
p4354
aa(lp4355
Vblack-heart
p4356
aV\U0001f5a4
p4357
aa(lp4358
Vheart-with-ribbon
p4359
aV\U0001f49d
p4360
aa(lp4361
Vrevolving-hearts
p4362
aV\U0001f49e
p4363
aa(lp4364
Vheart-decoration
p4365
aV\U0001f49f
p4366
aa(lp4367
Vheavy-heart-exclamation-mark-ornament
p4368
aV\u2763\ufe0f
p4369
aa(lp4370
Vlove-letter
p4371
aV\U0001f48c
p4372
aa(lp4373
Vsleeping-symbol
p4374
aV\U0001f4a4
p4375
aa(lp4376
Vanger-symbol
p4377
aV\U0001f4a2
p4378
aa(lp4379
Vbomb
p4380
aV\U0001f4a3
p4381
aa(lp4382
Vcollision-symbol
p4383
aV\U0001f4a5
p4384
aa(lp4385
Vsplashing-sweat-symbol
p4386
aV\U0001f4a6
p4387
aa(lp4388
Vdash-symbol
p4389
aV\U0001f4a8
p4390
aa(lp4391
Vdizzy-symbol
p4392
aV\U0001f4ab
p4393
aa(lp4394
Vspeech-balloon
p4395
aV\U0001f4ac
p4396
aa(lp4397
Vleft-speech-bubble
p4398
aV\U0001f5e8\ufe0f
p4399
aa(lp4400
Vright-anger-bubble
p4401
aV\U0001f5ef\ufe0f
p4402
aa(lp4403
Vthought-balloon
p4404
aV\U0001f4ad
p4405
aa(lp4406
Vhole
p4407
aV\U0001f573\ufe0f
p4408
aa(lp4409
Veyeglasses
p4410
aV\U0001f453
p4411
aa(lp4412
Vdark-sunglasses
p4413
aV\U0001f576\ufe0f
p4414
aa(lp4415
Vnecktie
p4416
aV\U0001f454
p4417
aa(lp4418
Vt-shirt
p4419
aV\U0001f455
p4420
aa(lp4421
Vjeans
p4422
aV\U0001f456
p4423
aa(lp4424
Vscarf
p4425
aV\U0001f9e3
p4426
aa(lp4427
Vgloves
p4428
aV\U0001f9e4
p4429
aa(lp4430
Vcoat
p4431
aV\U0001f9e5
p4432
aa(lp4433
Vsocks
p4434
aV\U0001f9e6
p4435
aa(lp4436
Vdress
p4437
aV\U0001f457
p4438
aa(lp4439
Vkimono
p4440
aV\U0001f458
p4441
aa(lp4442
Vbikini
p4443
aV\U0001f459
p4444
aa(lp4445
Vwomans-clothes
p4446
aV\U0001f45a
p4447
aa(lp4448
Vpurse
p4449
aV\U0001f45b
p4450
aa(lp4451
Vhandbag
p4452
aV\U0001f45c
p4453
aa(lp4454
Vpouch
p4455
aV\U0001f45d
p4456
aa(lp4457
Vshopping-bags
p4458
aV\U0001f6cd\ufe0f
p4459
aa(lp4460
Vschool-satchel
p4461
aV\U0001f392
p4462
aa(lp4463
Vmans-shoe
p4464
aV\U0001f45e
p4465
aa(lp4466
Vathletic-shoe
p4467
aV\U0001f45f
p4468
aa(lp4469
Vhigh-heeled-shoe
p4470
aV\U0001f460
p4471
aa(lp4472
Vwomans-sandal
p4473
aV\U0001f461
p4474
aa(lp4475
Vwomans-boots
p4476
aV\U0001f462
p4477
aa(lp4478
Vcrown
p4479
aV\U0001f451
p4480
aa(lp4481
Vwomans-hat
p4482
aV\U0001f452
p4483
aa(lp4484
Vtop-hat
p4485
aV\U0001f3a9
p4486
aa(lp4487
Vgraduation-cap
p4488
aV\U0001f393
p4489
aa(lp4490
Vbilled-cap
p4491
aV\U0001f9e2
p4492
aa(lp4493
Vhelmet-with-white-cross
p4494
aV\u26d1\ufe0f
p4495
aa(lp4496
Vprayer-beads
p4497
aV\U0001f4ff
p4498
aa(lp4499
Vlipstick
p4500
aV\U0001f484
p4501
aa(lp4502
Vring
p4503
aV\U0001f48d
p4504
aa(lp4505
Vgem-stone
p4506
aV\U0001f48e
p4507
aa(lp4508
Vmonkey-face
p4509
aV\U0001f435
p4510
aa(lp4511
Vmonkey
p4512
aV\U0001f412
p4513
aa(lp4514
Vgorilla
p4515
aV\U0001f98d
p4516
aa(lp4517
Vdog-face
p4518
aV\U0001f436
p4519
aa(lp4520
Vdog
p4521
aV\U0001f415
p4522
aa(lp4523
Vpoodle
p4524
aV\U0001f429
p4525
aa(lp4526
Vwolf-face
p4527
aV\U0001f43a
p4528
aa(lp4529
Vfox-face
p4530
aV\U0001f98a
p4531
aa(lp4532
Vcat-face
p4533
aV\U0001f431
p4534
aa(lp4535
Vcat
p4536
aV\U0001f408
p4537
aa(lp4538
Vlion-face
p4539
aV\U0001f981
p4540
aa(lp4541
Vtiger-face
p4542
aV\U0001f42f
p4543
aa(lp4544
Vtiger
p4545
aV\U0001f405
p4546
aa(lp4547
Vleopard
p4548
aV\U0001f406
p4549
aa(lp4550
Vhorse-face
p4551
aV\U0001f434
p4552
aa(lp4553
Vhorse
p4554
aV\U0001f40e
p4555
aa(lp4556
Vunicorn-face
p4557
aV\U0001f984
p4558
aa(lp4559
Vzebra-face
p4560
aV\U0001f993
p4561
aa(lp4562
Vdeer
p4563
aV\U0001f98c
p4564
aa(lp4565
Vcow-face
p4566
aV\U0001f42e
p4567
aa(lp4568
Vox
p4569
aV\U0001f402
p4570
aa(lp4571
Vwater-buffalo
p4572
aV\U0001f403
p4573
aa(lp4574
Vcow
p4575
aV\U0001f404
p4576
aa(lp4577
Vpig-face
p4578
aV\U0001f437
p4579
aa(lp4580
Vpig
p4581
aV\U0001f416
p4582
aa(lp4583
Vboar
p4584
aV\U0001f417
p4585
aa(lp4586
Vpig-nose
p4587
aV\U0001f43d
p4588
aa(lp4589
Vram
p4590
aV\U0001f40f
p4591
aa(lp4592
Vsheep
p4593
aV\U0001f411
p4594
aa(lp4595
Vgoat
p4596
aV\U0001f410
p4597
aa(lp4598
Vdromedary-camel
p4599
aV\U0001f42a
p4600
aa(lp4601
Vbactrian-camel
p4602
aV\U0001f42b
p4603
aa(lp4604
Vgiraffe-face
p4605
aV\U0001f992
p4606
aa(lp4607
Velephant
p4608
aV\U0001f418
p4609
aa(lp4610
Vrhinoceros
p4611
aV\U0001f98f
p4612
aa(lp4613
Vmouse-face
p4614
aV\U0001f42d
p4615
aa(lp4616
Vmouse
p4617
aV\U0001f401
p4618
aa(lp4619
Vrat
p4620
aV\U0001f400
p4621
aa(lp4622
Vhamster-face
p4623
aV\U0001f439
p4624
aa(lp4625
Vrabbit-face
p4626
aV\U0001f430
p4627
aa(lp4628
Vrabbit
p4629
aV\U0001f407
p4630
aa(lp4631
Vchipmunk
p4632
aV\U0001f43f\ufe0f
p4633
aa(lp4634
Vhedgehog
p4635
aV\U0001f994
p4636
aa(lp4637
Vbat
p4638
aV\U0001f987
p4639
aa(lp4640
Vbear-face
p4641
aV\U0001f43b
p4642
aa(lp4643
Vkoala
p4644
aV\U0001f428
p4645
aa(lp4646
Vpanda-face
p4647
aV\U0001f43c
p4648
aa(lp4649
Vpaw-prints
p4650
aV\U0001f43e
p4651
aa(lp4652
Vturkey
p4653
aV\U0001f983
p4654
aa(lp4655
Vchicken
p4656
aV\U0001f414
p4657
aa(lp4658
Vrooster
p4659
aV\U0001f413
p4660
aa(lp4661
Vhatching-chick
p4662
aV\U0001f423
p4663
aa(lp4664
Vbaby-chick
p4665
aV\U0001f424
p4666
aa(lp4667
Vfront-facing-baby-chick
p4668
aV\U0001f425
p4669
aa(lp4670
Vbird
p4671
aV\U0001f426
p4672
aa(lp4673
Vpenguin
p4674
aV\U0001f427
p4675
aa(lp4676
Vdove-of-peace
p4677
aV\U0001f54a\ufe0f
p4678
aa(lp4679
Veagle
p4680
aV\U0001f985
p4681
aa(lp4682
Vduck
p4683
aV\U0001f986
p4684
aa(lp4685
Vowl
p4686
aV\U0001f989
p4687
aa(lp4688
Vfrog-face
p4689
aV\U0001f438
p4690
aa(lp4691
Vcrocodile
p4692
aV\U0001f40a
p4693
aa(lp4694
Vturtle
p4695
aV\U0001f422
p4696
aa(lp4697
Vlizard
p4698
aV\U0001f98e
p4699
aa(lp4700
Vsnake
p4701
aV\U0001f40d
p4702
aa(lp4703
Vdragon-face
p4704
aV\U0001f432
p4705
aa(lp4706
Vdragon
p4707
aV\U0001f409
p4708
aa(lp4709
Vsauropod
p4710
aV\U0001f995
p4711
aa(lp4712
Vt-rex
p4713
aV\U0001f996
p4714
aa(lp4715
Vspouting-whale
p4716
aV\U0001f433
p4717
aa(lp4718
Vwhale
p4719
aV\U0001f40b
p4720
aa(lp4721
Vdolphin
p4722
aV\U0001f42c
p4723
aa(lp4724
Vfish
p4725
aV\U0001f41f
p4726
aa(lp4727
Vtropical-fish
p4728
aV\U0001f420
p4729
aa(lp4730
Vblowfish
p4731
aV\U0001f421
p4732
aa(lp4733
Vshark
p4734
aV\U0001f988
p4735
aa(lp4736
Voctopus
p4737
aV\U0001f419
p4738
aa(lp4739
Vspiral-shell
p4740
aV\U0001f41a
p4741
aa(lp4742
Vcrab
p4743
aV\U0001f980
p4744
aa(lp4745
Vshrimp
p4746
aV\U0001f990
p4747
aa(lp4748
Vsquid
p4749
aV\U0001f991
p4750
aa(lp4751
Vsnail
p4752
aV\U0001f40c
p4753
aa(lp4754
Vbutterfly
p4755
aV\U0001f98b
p4756
aa(lp4757
Vbug
p4758
aV\U0001f41b
p4759
aa(lp4760
Vant
p4761
aV\U0001f41c
p4762
aa(lp4763
Vhoneybee
p4764
aV\U0001f41d
p4765
aa(lp4766
Vlady-beetle
p4767
aV\U0001f41e
p4768
aa(lp4769
Vcricket
p4770
aV\U0001f997
p4771
aa(lp4772
Vspider
p4773
aV\U0001f577\ufe0f
p4774
aa(lp4775
Vspider-web
p4776
aV\U0001f578\ufe0f
p4777
aa(lp4778
Vscorpion
p4779
aV\U0001f982
p4780
aa(lp4781
Vbouquet
p4782
aV\U0001f490
p4783
aa(lp4784
Vcherry-blossom
p4785
aV\U0001f338
p4786
aa(lp4787
Vwhite-flower
p4788
aV\U0001f4ae
p4789
aa(lp4790
Vrosette
p4791
aV\U0001f3f5\ufe0f
p4792
aa(lp4793
Vrose
p4794
aV\U0001f339
p4795
aa(lp4796
Vwilted-flower
p4797
aV\U0001f940
p4798
aa(lp4799
Vhibiscus
p4800
aV\U0001f33a
p4801
aa(lp4802
Vsunflower
p4803
aV\U0001f33b
p4804
aa(lp4805
Vblossom
p4806
aV\U0001f33c
p4807
aa(lp4808
Vtulip
p4809
aV\U0001f337
p4810
aa(lp4811
Vseedling
p4812
aV\U0001f331
p4813
aa(lp4814
Vevergreen-tree
p4815
aV\U0001f332
p4816
aa(lp4817
Vdeciduous-tree
p4818
aV\U0001f333
p4819
aa(lp4820
Vpalm-tree
p4821
aV\U0001f334
p4822
aa(lp4823
Vcactus
p4824
aV\U0001f335
p4825
aa(lp4826
Vear-of-rice
p4827
aV\U0001f33e
p4828
aa(lp4829
Vherb
p4830
aV\U0001f33f
p4831
aa(lp4832
Vshamrock
p4833
aV\u2618\ufe0f
p4834
aa(lp4835
Vfour-leaf-clover
p4836
aV\U0001f340
p4837
aa(lp4838
Vmaple-leaf
p4839
aV\U0001f341
p4840
aa(lp4841
Vfallen-leaf
p4842
aV\U0001f342
p4843
aa(lp4844
Vleaf-fluttering-in-wind
p4845
aV\U0001f343
p4846
aa(lp4847
Vgrapes
p4848
aV\U0001f347
p4849
aa(lp4850
Vmelon
p4851
aV\U0001f348
p4852
aa(lp4853
Vwatermelon
p4854
aV\U0001f349
p4855
aa(lp4856
Vtangerine
p4857
aV\U0001f34a
p4858
aa(lp4859
Vlemon
p4860
aV\U0001f34b
p4861
aa(lp4862
Vbanana
p4863
aV\U0001f34c
p4864
aa(lp4865
Vpineapple
p4866
aV\U0001f34d
p4867
aa(lp4868
Vred-apple
p4869
aV\U0001f34e
p4870
aa(lp4871
Vgreen-apple
p4872
aV\U0001f34f
p4873
aa(lp4874
Vpear
p4875
aV\U0001f350
p4876
aa(lp4877
Vpeach
p4878
aV\U0001f351
p4879
aa(lp4880
Vcherries
p4881
aV\U0001f352
p4882
aa(lp4883
Vstrawberry
p4884
aV\U0001f353
p4885
aa(lp4886
Vkiwifruit
p4887
aV\U0001f95d
p4888
aa(lp4889
Vtomato
p4890
aV\U0001f345
p4891
aa(lp4892
Vcoconut
p4893
aV\U0001f965
p4894
aa(lp4895
Vavocado
p4896
aV\U0001f951
p4897
aa(lp4898
Vaubergine
p4899
aV\U0001f346
p4900
aa(lp4901
Vpotato
p4902
aV\U0001f954
p4903
aa(lp4904
Vcarrot
p4905
aV\U0001f955
p4906
aa(lp4907
Vear-of-maize
p4908
aV\U0001f33d
p4909
aa(lp4910
Vhot-pepper
p4911
aV\U0001f336\ufe0f
p4912
aa(lp4913
Vcucumber
p4914
aV\U0001f952
p4915
aa(lp4916
Vbroccoli
p4917
aV\U0001f966
p4918
aa(lp4919
Vmushroom
p4920
aV\U0001f344
p4921
aa(lp4922
Vpeanuts
p4923
aV\U0001f95c
p4924
aa(lp4925
Vchestnut
p4926
aV\U0001f330
p4927
aa(lp4928
Vbread
p4929
aV\U0001f35e
p4930
aa(lp4931
Vcroissant
p4932
aV\U0001f950
p4933
aa(lp4934
Vbaguette-bread
p4935
aV\U0001f956
p4936
aa(lp4937
Vpretzel
p4938
aV\U0001f968
p4939
aa(lp4940
Vpancakes
p4941
aV\U0001f95e
p4942
aa(lp4943
Vcheese-wedge
p4944
aV\U0001f9c0
p4945
aa(lp4946
Vmeat-on-bone
p4947
aV\U0001f356
p4948
aa(lp4949
Vpoultry-leg
p4950
aV\U0001f357
p4951
aa(lp4952
Vcut-of-meat
p4953
aV\U0001f969
p4954
aa(lp4955
Vbacon
p4956
aV\U0001f953
p4957
aa(lp4958
Vhamburger
p4959
aV\U0001f354
p4960
aa(lp4961
Vfrench-fries
p4962
aV\U0001f35f
p4963
aa(lp4964
Vslice-of-pizza
p4965
aV\U0001f355
p4966
aa(lp4967
Vhot-dog
p4968
aV\U0001f32d
p4969
aa(lp4970
Vsandwich
p4971
aV\U0001f96a
p4972
aa(lp4973
Vtaco
p4974
aV\U0001f32e
p4975
aa(lp4976
Vburrito
p4977
aV\U0001f32f
p4978
aa(lp4979
Vstuffed-flatbread
p4980
aV\U0001f959
p4981
aa(lp4982
Vegg
p4983
aV\U0001f95a
p4984
aa(lp4985
Vcooking
p4986
aV\U0001f373
p4987
aa(lp4988
Vshallow-pan-of-food
p4989
aV\U0001f958
p4990
aa(lp4991
Vpot-of-food
p4992
aV\U0001f372
p4993
aa(lp4994
Vbowl-with-spoon
p4995
aV\U0001f963
p4996
aa(lp4997
Vgreen-salad
p4998
aV\U0001f957
p4999
aa(lp5000
Vpopcorn
p5001
aV\U0001f37f
p5002
aa(lp5003
Vcanned-food
p5004
aV\U0001f96b
p5005
aa(lp5006
Vbento-box
p5007
aV\U0001f371
p5008
aa(lp5009
Vrice-cracker
p5010
aV\U0001f358
p5011
aa(lp5012
Vrice-ball
p5013
aV\U0001f359
p5014
aa(lp5015
Vcooked-rice
p5016
aV\U0001f35a
p5017
aa(lp5018
Vcurry-and-rice
p5019
aV\U0001f35b
p5020
aa(lp5021
Vsteaming-bowl
p5022
aV\U0001f35c
p5023
aa(lp5024
Vspaghetti
p5025
aV\U0001f35d
p5026
aa(lp5027
Vroasted-sweet-potato
p5028
aV\U0001f360
p5029
aa(lp5030
Voden
p5031
aV\U0001f362
p5032
aa(lp5033
Vsushi
p5034
aV\U0001f363
p5035
aa(lp5036
Vfried-shrimp
p5037
aV\U0001f364
p5038
aa(lp5039
Vfish-cake-with-swirl-design
p5040
aV\U0001f365
p5041
aa(lp5042
Vdango
p5043
aV\U0001f361
p5044
aa(lp5045
Vdumpling
p5046
aV\U0001f95f
p5047
aa(lp5048
Vfortune-cookie
p5049
aV\U0001f960
p5050
aa(lp5051
Vtakeout-box
p5052
aV\U0001f961
p5053
aa(lp5054
Vsoft-ice-cream
p5055
aV\U0001f366
p5056
aa(lp5057
Vshaved-ice
p5058
aV\U0001f367
p5059
aa(lp5060
Vice-cream
p5061
aV\U0001f368
p5062
aa(lp5063
Vdoughnut
p5064
aV\U0001f369
p5065
aa(lp5066
Vcookie
p5067
aV\U0001f36a
p5068
aa(lp5069
Vbirthday-cake
p5070
aV\U0001f382
p5071
aa(lp5072
Vshortcake
p5073
aV\U0001f370
p5074
aa(lp5075
Vpie
p5076
aV\U0001f967
p5077
aa(lp5078
Vchocolate-bar
p5079
aV\U0001f36b
p5080
aa(lp5081
Vcandy
p5082
aV\U0001f36c
p5083
aa(lp5084
Vlollipop
p5085
aV\U0001f36d
p5086
aa(lp5087
Vcustard
p5088
aV\U0001f36e
p5089
aa(lp5090
Vhoney-pot
p5091
aV\U0001f36f
p5092
aa(lp5093
Vbaby-bottle
p5094
aV\U0001f37c
p5095
aa(lp5096
Vglass-of-milk
p5097
aV\U0001f95b
p5098
aa(lp5099
Vhot-beverage
p5100
aV\u2615
p5101
aa(lp5102
Vteacup-without-handle
p5103
aV\U0001f375
p5104
aa(lp5105
Vsake-bottle-and-cup
p5106
aV\U0001f376
p5107
aa(lp5108
Vbottle-with-popping-cork
p5109
aV\U0001f37e
p5110
aa(lp5111
Vwine-glass
p5112
aV\U0001f377
p5113
aa(lp5114
Vcocktail-glass
p5115
aV\U0001f378
p5116
aa(lp5117
Vtropical-drink
p5118
aV\U0001f379
p5119
aa(lp5120
Vbeer-mug
p5121
aV\U0001f37a
p5122
aa(lp5123
Vclinking-beer-mugs
p5124
aV\U0001f37b
p5125
aa(lp5126
Vclinking-glasses
p5127
aV\U0001f942
p5128
aa(lp5129
Vtumbler-glass
p5130
aV\U0001f943
p5131
aa(lp5132
Vcup-with-straw
p5133
aV\U0001f964
p5134
aa(lp5135
Vchopsticks
p5136
aV\U0001f962
p5137
aa(lp5138
Vfork-and-knife-with-plate
p5139
aV\U0001f37d\ufe0f
p5140
aa(lp5141
Vfork-and-knife
p5142
aV\U0001f374
p5143
aa(lp5144
Vspoon
p5145
aV\U0001f944
p5146
aa(lp5147
Vhocho
p5148
aV\U0001f52a
p5149
aa(lp5150
Vamphora
p5151
aV\U0001f3fa
p5152
aa(lp5153
Vearth-globe-europe-africa
p5154
aV\U0001f30d
p5155
aa(lp5156
Vearth-globe-americas
p5157
aV\U0001f30e
p5158
aa(lp5159
Vearth-globe-asia-australia
p5160
aV\U0001f30f
p5161
aa(lp5162
Vglobe-with-meridians
p5163
aV\U0001f310
p5164
aa(lp5165
Vworld-map
p5166
aV\U0001f5fa\ufe0f
p5167
aa(lp5168
Vsilhouette-of-japan
p5169
aV\U0001f5fe
p5170
aa(lp5171
Vsnow-capped-mountain
p5172
aV\U0001f3d4\ufe0f
p5173
aa(lp5174
Vmountain
p5175
aV\u26f0\ufe0f
p5176
aa(lp5177
Vvolcano
p5178
aV\U0001f30b
p5179
aa(lp5180
Vmount-fuji
p5181
aV\U0001f5fb
p5182
aa(lp5183
Vcamping
p5184
aV\U0001f3d5\ufe0f
p5185
aa(lp5186
Vbeach-with-umbrella
p5187
aV\U0001f3d6\ufe0f
p5188
aa(lp5189
Vdesert
p5190
aV\U0001f3dc\ufe0f
p5191
aa(lp5192
Vdesert-island
p5193
aV\U0001f3dd\ufe0f
p5194
aa(lp5195
Vnational-park
p5196
aV\U0001f3de\ufe0f
p5197
aa(lp5198
Vstadium
p5199
aV\U0001f3df\ufe0f
p5200
aa(lp5201
Vclassical-building
p5202
aV\U0001f3db\ufe0f
p5203
aa(lp5204
Vbuilding-construction
p5205
aV\U0001f3d7\ufe0f
p5206
aa(lp5207
Vhouse-buildings
p5208
aV\U0001f3d8\ufe0f
p5209
aa(lp5210
Vderelict-house-building
p5211
aV\U0001f3da\ufe0f
p5212
aa(lp5213
Vhouse-building
p5214
aV\U0001f3e0
p5215
aa(lp5216
Vhouse-with-garden
p5217
aV\U0001f3e1
p5218
aa(lp5219
Voffice-building
p5220
aV\U0001f3e2
p5221
aa(lp5222
Vjapanese-post-office
p5223
aV\U0001f3e3
p5224
aa(lp5225
Veuropean-post-office
p5226
aV\U0001f3e4
p5227
aa(lp5228
Vhospital
p5229
aV\U0001f3e5
p5230
aa(lp5231
Vbank
p5232
aV\U0001f3e6
p5233
aa(lp5234
Vhotel
p5235
aV\U0001f3e8
p5236
aa(lp5237
Vlove-hotel
p5238
aV\U0001f3e9
p5239
aa(lp5240
Vconvenience-store
p5241
aV\U0001f3ea
p5242
aa(lp5243
Vschool
p5244
aV\U0001f3eb
p5245
aa(lp5246
Vdepartment-store
p5247
aV\U0001f3ec
p5248
aa(lp5249
Vfactory
p5250
aV\U0001f3ed
p5251
aa(lp5252
Vjapanese-castle
p5253
aV\U0001f3ef
p5254
aa(lp5255
Veuropean-castle
p5256
aV\U0001f3f0
p5257
aa(lp5258
Vwedding
p5259
aV\U0001f492
p5260
aa(lp5261
Vtokyo-tower
p5262
aV\U0001f5fc
p5263
aa(lp5264
Vstatue-of-liberty
p5265
aV\U0001f5fd
p5266
aa(lp5267
Vchurch
p5268
aV\u26ea
p5269
aa(lp5270
Vmosque
p5271
aV\U0001f54c
p5272
aa(lp5273
Vsynagogue
p5274
aV\U0001f54d
p5275
aa(lp5276
Vshinto-shrine
p5277
aV\u26e9\ufe0f
p5278
aa(lp5279
Vkaaba
p5280
aV\U0001f54b
p5281
aa(lp5282
Vfountain
p5283
aV\u26f2
p5284
aa(lp5285
Vtent
p5286
aV\u26fa
p5287
aa(lp5288
Vfoggy
p5289
aV\U0001f301
p5290
aa(lp5291
Vnight-with-stars
p5292
aV\U0001f303
p5293
aa(lp5294
Vcityscape
p5295
aV\U0001f3d9\ufe0f
p5296
aa(lp5297
Vsunrise-over-mountains
p5298
aV\U0001f304
p5299
aa(lp5300
Vsunrise
p5301
aV\U0001f305
p5302
aa(lp5303
Vcityscape-at-dusk
p5304
aV\U0001f306
p5305
aa(lp5306
Vsunset-over-buildings
p5307
aV\U0001f307
p5308
aa(lp5309
Vbridge-at-night
p5310
aV\U0001f309
p5311
aa(lp5312
Vhot-springs
p5313
aV\u2668\ufe0f
p5314
aa(lp5315
Vmilky-way
p5316
aV\U0001f30c
p5317
aa(lp5318
Vcarousel-horse
p5319
aV\U0001f3a0
p5320
aa(lp5321
Vferris-wheel
p5322
aV\U0001f3a1
p5323
aa(lp5324
Vroller-coaster
p5325
aV\U0001f3a2
p5326
aa(lp5327
Vbarber-pole
p5328
aV\U0001f488
p5329
aa(lp5330
Vcircus-tent
p5331
aV\U0001f3aa
p5332
aa(lp5333
Vsteam-locomotive
p5334
aV\U0001f682
p5335
aa(lp5336
Vrailway-car
p5337
aV\U0001f683
p5338
aa(lp5339
Vhigh-speed-train
p5340
aV\U0001f684
p5341
aa(lp5342
Vhigh-speed-train-with-bullet-nose
p5343
aV\U0001f685
p5344
aa(lp5345
Vtrain
p5346
aV\U0001f686
p5347
aa(lp5348
Vmetro
p5349
aV\U0001f687
p5350
aa(lp5351
Vlight-rail
p5352
aV\U0001f688
p5353
aa(lp5354
Vstation
p5355
aV\U0001f689
p5356
aa(lp5357
Vtram
p5358
aV\U0001f68a
p5359
aa(lp5360
Vmonorail
p5361
aV\U0001f69d
p5362
aa(lp5363
Vmountain-railway
p5364
aV\U0001f69e
p5365
aa(lp5366
Vtram-car
p5367
aV\U0001f68b
p5368
aa(lp5369
Vbus
p5370
aV\U0001f68c
p5371
aa(lp5372
Voncoming-bus
p5373
aV\U0001f68d
p5374
aa(lp5375
Vtrolleybus
p5376
aV\U0001f68e
p5377
aa(lp5378
Vminibus
p5379
aV\U0001f690
p5380
aa(lp5381
Vambulance
p5382
aV\U0001f691
p5383
aa(lp5384
Vfire-engine
p5385
aV\U0001f692
p5386
aa(lp5387
Vpolice-car
p5388
aV\U0001f693
p5389
aa(lp5390
Voncoming-police-car
p5391
aV\U0001f694
p5392
aa(lp5393
Vtaxi
p5394
aV\U0001f695
p5395
aa(lp5396
Voncoming-taxi
p5397
aV\U0001f696
p5398
aa(lp5399
Vautomobile
p5400
aV\U0001f697
p5401
aa(lp5402
Voncoming-automobile
p5403
aV\U0001f698
p5404
aa(lp5405
Vrecreational-vehicle
p5406
aV\U0001f699
p5407
aa(lp5408
Vdelivery-truck
p5409
aV\U0001f69a
p5410
aa(lp5411
Varticulated-lorry
p5412
aV\U0001f69b
p5413
aa(lp5414
Vtractor
p5415
aV\U0001f69c
p5416
aa(lp5417
Vbicycle
p5418
aV\U0001f6b2
p5419
aa(lp5420
Vscooter
p5421
aV\U0001f6f4
p5422
aa(lp5423
Vmotor-scooter
p5424
aV\U0001f6f5
p5425
aa(lp5426
Vbus-stop
p5427
aV\U0001f68f
p5428
aa(lp5429
Vmotorway
p5430
aV\U0001f6e3\ufe0f
p5431
aa(lp5432
Vrailway-track
p5433
aV\U0001f6e4\ufe0f
p5434
aa(lp5435
Voil-drum
p5436
aV\U0001f6e2\ufe0f
p5437
aa(lp5438
Vfuel-pump
p5439
aV\u26fd
p5440
aa(lp5441
Vpolice-cars-revolving-light
p5442
aV\U0001f6a8
p5443
aa(lp5444
Vhorizontal-traffic-light
p5445
aV\U0001f6a5
p5446
aa(lp5447
Vvertical-traffic-light
p5448
aV\U0001f6a6
p5449
aa(lp5450
Voctagonal-sign
p5451
aV\U0001f6d1
p5452
aa(lp5453
Vconstruction-sign
p5454
aV\U0001f6a7
p5455
aa(lp5456
Vanchor
p5457
aV\u2693
p5458
aa(lp5459
Vsailboat
p5460
aV\u26f5
p5461
aa(lp5462
Vcanoe
p5463
aV\U0001f6f6
p5464
aa(lp5465
Vspeedboat
p5466
aV\U0001f6a4
p5467
aa(lp5468
Vpassenger-ship
p5469
aV\U0001f6f3\ufe0f
p5470
aa(lp5471
Vferry
p5472
aV\u26f4\ufe0f
p5473
aa(lp5474
Vmotor-boat
p5475
aV\U0001f6e5\ufe0f
p5476
aa(lp5477
Vship
p5478
aV\U0001f6a2
p5479
aa(lp5480
Vairplane
p5481
aV\u2708\ufe0f
p5482
aa(lp5483
Vsmall-airplane
p5484
aV\U0001f6e9\ufe0f
p5485
aa(lp5486
Vairplane-departure
p5487
aV\U0001f6eb
p5488
aa(lp5489
Vairplane-arriving
p5490
aV\U0001f6ec
p5491
aa(lp5492
Vseat
p5493
aV\U0001f4ba
p5494
aa(lp5495
Vhelicopter
p5496
aV\U0001f681
p5497
aa(lp5498
Vsuspension-railway
p5499
aV\U0001f69f
p5500
aa(lp5501
Vmountain-cableway
p5502
aV\U0001f6a0
p5503
aa(lp5504
Vaerial-tramway
p5505
aV\U0001f6a1
p5506
aa(lp5507
Vsatellite
p5508
aV\U0001f6f0\ufe0f
p5509
aa(lp5510
Vrocket
p5511
aV\U0001f680
p5512
aa(lp5513
Vflying-saucer
p5514
aV\U0001f6f8
p5515
aa(lp5516
Vbellhop-bell
p5517
aV\U0001f6ce\ufe0f
p5518
aa(lp5519
Vhourglass
p5520
aV\u231b
p5521
aa(lp5522
Vhourglass-with-flowing-sand
p5523
aV\u23f3
p5524
aa(lp5525
Vwatch
p5526
aV\u231a
p5527
aa(lp5528
Valarm-clock
p5529
aV\u23f0
p5530
aa(lp5531
Vstopwatch
p5532
aV\u23f1\ufe0f
p5533
aa(lp5534
Vtimer-clock
p5535
aV\u23f2\ufe0f
p5536
aa(lp5537
Vmantelpiece-clock
p5538
aV\U0001f570\ufe0f
p5539
aa(lp5540
Vclock-face-twelve-oclock
p5541
aV\U0001f55b
p5542
aa(lp5543
Vclock-face-twelve-thirty
p5544
aV\U0001f567
p5545
aa(lp5546
Vclock-face-one-oclock
p5547
aV\U0001f550
p5548
aa(lp5549
Vclock-face-one-thirty
p5550
aV\U0001f55c
p5551
aa(lp5552
Vclock-face-two-oclock
p5553
aV\U0001f551
p5554
aa(lp5555
Vclock-face-two-thirty
p5556
aV\U0001f55d
p5557
aa(lp5558
Vclock-face-three-oclock
p5559
aV\U0001f552
p5560
aa(lp5561
Vclock-face-three-thirty
p5562
aV\U0001f55e
p5563
aa(lp5564
Vclock-face-four-oclock
p5565
aV\U0001f553
p5566
aa(lp5567
Vclock-face-four-thirty
p5568
aV\U0001f55f
p5569
aa(lp5570
Vclock-face-five-oclock
p5571
aV\U0001f554
p5572
aa(lp5573
Vclock-face-five-thirty
p5574
aV\U0001f560
p5575
aa(lp5576
Vclock-face-six-oclock
p5577
aV\U0001f555
p5578
aa(lp5579
Vclock-face-six-thirty
p5580
aV\U0001f561
p5581
aa(lp5582
Vclock-face-seven-oclock
p5583
aV\U0001f556
p5584
aa(lp5585
Vclock-face-seven-thirty
p5586
aV\U0001f562
p5587
aa(lp5588
Vclock-face-eight-oclock
p5589
aV\U0001f557
p5590
aa(lp5591
Vclock-face-eight-thirty
p5592
aV\U0001f563
p5593
aa(lp5594
Vclock-face-nine-oclock
p5595
aV\U0001f558
p5596
aa(lp5597
Vclock-face-nine-thirty
p5598
aV\U0001f564
p5599
aa(lp5600
Vclock-face-ten-oclock
p5601
aV\U0001f559
p5602
aa(lp5603
Vclock-face-ten-thirty
p5604
aV\U0001f565
p5605
aa(lp5606
Vclock-face-eleven-oclock
p5607
aV\U0001f55a
p5608
aa(lp5609
Vclock-face-eleven-thirty
p5610
aV\U0001f566
p5611
aa(lp5612
Vnew-moon-symbol
p5613
aV\U0001f311
p5614
aa(lp5615
Vwaxing-crescent-moon-symbol
p5616
aV\U0001f312
p5617
aa(lp5618
Vfirst-quarter-moon-symbol
p5619
aV\U0001f313
p5620
aa(lp5621
Vwaxing-gibbous-moon-symbol
p5622
aV\U0001f314
p5623
aa(lp5624
Vfull-moon-symbol
p5625
aV\U0001f315
p5626
aa(lp5627
Vwaning-gibbous-moon-symbol
p5628
aV\U0001f316
p5629
aa(lp5630
Vlast-quarter-moon-symbol
p5631
aV\U0001f317
p5632
aa(lp5633
Vwaning-crescent-moon-symbol
p5634
aV\U0001f318
p5635
aa(lp5636
Vcrescent-moon
p5637
aV\U0001f319
p5638
aa(lp5639
Vnew-moon-with-face
p5640
aV\U0001f31a
p5641
aa(lp5642
Vfirst-quarter-moon-with-face
p5643
aV\U0001f31b
p5644
aa(lp5645
Vlast-quarter-moon-with-face
p5646
aV\U0001f31c
p5647
aa(lp5648
Vthermometer
p5649
aV\U0001f321\ufe0f
p5650
aa(lp5651
Vblack-sun-with-rays
p5652
aV\u2600\ufe0f
p5653
aa(lp5654
Vfull-moon-with-face
p5655
aV\U0001f31d
p5656
aa(lp5657
Vsun-with-face
p5658
aV\U0001f31e
p5659
aa(lp5660
Vwhite-medium-star
p5661
aV\u2b50
p5662
aa(lp5663
Vglowing-star
p5664
aV\U0001f31f
p5665
aa(lp5666
Vshooting-star
p5667
aV\U0001f320
p5668
aa(lp5669
Vcloud
p5670
aV\u2601\ufe0f
p5671
aa(lp5672
Vsun-behind-cloud
p5673
aV\u26c5
p5674
aa(lp5675
Vthunder-cloud-and-rain
p5676
aV\u26c8\ufe0f
p5677
aa(lp5678
Vwhite-sun-with-small-cloud
p5679
aV\U0001f324\ufe0f
p5680
aa(lp5681
Vwhite-sun-behind-cloud
p5682
aV\U0001f325\ufe0f
p5683
aa(lp5684
Vwhite-sun-behind-cloud-with-rain
p5685
aV\U0001f326\ufe0f
p5686
aa(lp5687
Vcloud-with-rain
p5688
aV\U0001f327\ufe0f
p5689
aa(lp5690
Vcloud-with-snow
p5691
aV\U0001f328\ufe0f
p5692
aa(lp5693
Vcloud-with-lightning
p5694
aV\U0001f329\ufe0f
p5695
aa(lp5696
Vcloud-with-tornado
p5697
aV\U0001f32a\ufe0f
p5698
aa(lp5699
Vfog
p5700
aV\U0001f32b\ufe0f
p5701
aa(lp5702
Vwind-blowing-face
p5703
aV\U0001f32c\ufe0f
p5704
aa(lp5705
Vcyclone
p5706
aV\U0001f300
p5707
aa(lp5708
Vrainbow
p5709
aV\U0001f308
p5710
aa(lp5711
Vclosed-umbrella
p5712
aV\U0001f302
p5713
aa(lp5714
Vumbrella
p5715
aV\u2602\ufe0f
p5716
aa(lp5717
Vumbrella-with-rain-drops
p5718
aV\u2614
p5719
aa(lp5720
Vumbrella-on-ground
p5721
aV\u26f1\ufe0f
p5722
aa(lp5723
Vhigh-voltage-sign
p5724
aV\u26a1
p5725
aa(lp5726
Vsnowflake
p5727
aV\u2744\ufe0f
p5728
aa(lp5729
Vsnowman
p5730
aV\u2603\ufe0f
p5731
aa(lp5732
Vsnowman-without-snow
p5733
aV\u26c4
p5734
aa(lp5735
Vcomet
p5736
aV\u2604\ufe0f
p5737
aa(lp5738
Vfire
p5739
aV\U0001f525
p5740
aa(lp5741
Vdroplet
p5742
aV\U0001f4a7
p5743
aa(lp5744
Vwater-wave
p5745
aV\U0001f30a
p5746
aa(lp5747
Vjack-o-lantern
p5748
aV\U0001f383
p5749
aa(lp5750
Vchristmas-tree
p5751
aV\U0001f384
p5752
aa(lp5753
Vfireworks
p5754
aV\U0001f386
p5755
aa(lp5756
Vfirework-sparkler
p5757
aV\U0001f387
p5758
aa(lp5759
Vsparkles
p5760
aV\u2728
p5761
aa(lp5762
Vballoon
p5763
aV\U0001f388
p5764
aa(lp5765
Vparty-popper
p5766
aV\U0001f389
p5767
aa(lp5768
Vconfetti-ball
p5769
aV\U0001f38a
p5770
aa(lp5771
Vtanabata-tree
p5772
aV\U0001f38b
p5773
aa(lp5774
Vpine-decoration
p5775
aV\U0001f38d
p5776
aa(lp5777
Vjapanese-dolls
p5778
aV\U0001f38e
p5779
aa(lp5780
Vcarp-streamer
p5781
aV\U0001f38f
p5782
aa(lp5783
Vwind-chime
p5784
aV\U0001f390
p5785
aa(lp5786
Vmoon-viewing-ceremony
p5787
aV\U0001f391
p5788
aa(lp5789
Vribbon
p5790
aV\U0001f380
p5791
aa(lp5792
Vwrapped-present
p5793
aV\U0001f381
p5794
aa(lp5795
Vreminder-ribbon
p5796
aV\U0001f397\ufe0f
p5797
aa(lp5798
Vadmission-tickets
p5799
aV\U0001f39f\ufe0f
p5800
aa(lp5801
Vticket
p5802
aV\U0001f3ab
p5803
aa(lp5804
Vmilitary-medal
p5805
aV\U0001f396\ufe0f
p5806
aa(lp5807
Vtrophy
p5808
aV\U0001f3c6
p5809
aa(lp5810
Vsports-medal
p5811
aV\U0001f3c5
p5812
aa(lp5813
Vfirst-place-medal
p5814
aV\U0001f947
p5815
aa(lp5816
Vsecond-place-medal
p5817
aV\U0001f948
p5818
aa(lp5819
Vthird-place-medal
p5820
aV\U0001f949
p5821
aa(lp5822
Vsoccer-ball
p5823
aV\u26bd
p5824
aa(lp5825
Vbaseball
p5826
aV\u26be
p5827
aa(lp5828
Vbasketball-and-hoop
p5829
aV\U0001f3c0
p5830
aa(lp5831
Vvolleyball
p5832
aV\U0001f3d0
p5833
aa(lp5834
Vamerican-football
p5835
aV\U0001f3c8
p5836
aa(lp5837
Vrugby-football
p5838
aV\U0001f3c9
p5839
aa(lp5840
Vtennis-racquet-and-ball
p5841
aV\U0001f3be
p5842
aa(lp5843
Vbowling
p5844
aV\U0001f3b3
p5845
aa(lp5846
Vcricket-bat-and-ball
p5847
aV\U0001f3cf
p5848
aa(lp5849
Vfield-hockey-stick-and-ball
p5850
aV\U0001f3d1
p5851
aa(lp5852
Vice-hockey-stick-and-puck
p5853
aV\U0001f3d2
p5854
aa(lp5855
Vtable-tennis-paddle-and-ball
p5856
aV\U0001f3d3
p5857
aa(lp5858
Vbadminton-racquet-and-shuttlecock
p5859
aV\U0001f3f8
p5860
aa(lp5861
Vboxing-glove
p5862
aV\U0001f94a
p5863
aa(lp5864
Vmartial-arts-uniform
p5865
aV\U0001f94b
p5866
aa(lp5867
Vgoal-net
p5868
aV\U0001f945
p5869
aa(lp5870
Vflag-in-hole
p5871
aV\u26f3
p5872
aa(lp5873
Vice-skate
p5874
aV\u26f8\ufe0f
p5875
aa(lp5876
Vfishing-pole-and-fish
p5877
aV\U0001f3a3
p5878
aa(lp5879
Vrunning-shirt-with-sash
p5880
aV\U0001f3bd
p5881
aa(lp5882
Vski-and-ski-boot
p5883
aV\U0001f3bf
p5884
aa(lp5885
Vsled
p5886
aV\U0001f6f7
p5887
aa(lp5888
Vcurling-stone
p5889
aV\U0001f94c
p5890
aa(lp5891
Vdirect-hit
p5892
aV\U0001f3af
p5893
aa(lp5894
Vbilliards
p5895
aV\U0001f3b1
p5896
aa(lp5897
Vcrystal-ball
p5898
aV\U0001f52e
p5899
aa(lp5900
Vvideo-game
p5901
aV\U0001f3ae
p5902
aa(lp5903
Vjoystick
p5904
aV\U0001f579\ufe0f
p5905
aa(lp5906
Vslot-machine
p5907
aV\U0001f3b0
p5908
aa(lp5909
Vgame-die
p5910
aV\U0001f3b2
p5911
aa(lp5912
Vblack-spade-suit
p5913
aV\u2660\ufe0f
p5914
aa(lp5915
Vblack-heart-suit
p5916
aV\u2665\ufe0f
p5917
aa(lp5918
Vblack-diamond-suit
p5919
aV\u2666\ufe0f
p5920
aa(lp5921
Vblack-club-suit
p5922
aV\u2663\ufe0f
p5923
aa(lp5924
Vplaying-card-black-joker
p5925
aV\U0001f0cf
p5926
aa(lp5927
Vmahjong-tile-red-dragon
p5928
aV\U0001f004
p5929
aa(lp5930
Vflower-playing-cards
p5931
aV\U0001f3b4
p5932
aa(lp5933
Vperforming-arts
p5934
aV\U0001f3ad
p5935
aa(lp5936
Vframe-with-picture
p5937
aV\U0001f5bc\ufe0f
p5938
aa(lp5939
Vartist-palette
p5940
aV\U0001f3a8
p5941
aa(lp5942
Vspeaker-with-cancellation-stroke
p5943
aV\U0001f507
p5944
aa(lp5945
Vspeaker
p5946
aV\U0001f508
p5947
aa(lp5948
Vspeaker-with-one-sound-wave
p5949
aV\U0001f509
p5950
aa(lp5951
Vspeaker-with-three-sound-waves
p5952
aV\U0001f50a
p5953
aa(lp5954
Vpublic-address-loudspeaker
p5955
aV\U0001f4e2
p5956
aa(lp5957
Vcheering-megaphone
p5958
aV\U0001f4e3
p5959
aa(lp5960
Vpostal-horn
p5961
aV\U0001f4ef
p5962
aa(lp5963
Vbell
p5964
aV\U0001f514
p5965
aa(lp5966
Vbell-with-cancellation-stroke
p5967
aV\U0001f515
p5968
aa(lp5969
Vmusical-score
p5970
aV\U0001f3bc
p5971
aa(lp5972
Vmusical-note
p5973
aV\U0001f3b5
p5974
aa(lp5975
Vmultiple-musical-notes
p5976
aV\U0001f3b6
p5977
aa(lp5978
Vstudio-microphone
p5979
aV\U0001f399\ufe0f
p5980
aa(lp5981
Vlevel-slider
p5982
aV\U0001f39a\ufe0f
p5983
aa(lp5984
Vcontrol-knobs
p5985
aV\U0001f39b\ufe0f
p5986
aa(lp5987
Vmicrophone
p5988
aV\U0001f3a4
p5989
aa(lp5990
Vheadphone
p5991
aV\U0001f3a7
p5992
aa(lp5993
Vradio
p5994
aV\U0001f4fb
p5995
aa(lp5996
Vsaxophone
p5997
aV\U0001f3b7
p5998
aa(lp5999
Vguitar
p6000
aV\U0001f3b8
p6001
aa(lp6002
Vmusical-keyboard
p6003
aV\U0001f3b9
p6004
aa(lp6005
Vtrumpet
p6006
aV\U0001f3ba
p6007
aa(lp6008
Vviolin
p6009
aV\U0001f3bb
p6010
aa(lp6011
Vdrum-with-drumsticks
p6012
aV\U0001f941
p6013
aa(lp6014
Vmobile-phone
p6015
aV\U0001f4f1
p6016
aa(lp6017
Vmobile-phone-with-rightwards-arrow-at-left
p6018
aV\U0001f4f2
p6019
aa(lp6020
Vblack-telephone
p6021
aV\u260e\ufe0f
p6022
aa(lp6023
Vtelephone-receiver
p6024
aV\U0001f4de
p6025
aa(lp6026
Vpager
p6027
aV\U0001f4df
p6028
aa(lp6029
Vfax-machine
p6030
aV\U0001f4e0
p6031
aa(lp6032
Vbattery
p6033
aV\U0001f50b
p6034
aa(lp6035
Velectric-plug
p6036
aV\U0001f50c
p6037
aa(lp6038
Vpersonal-computer
p6039
aV\U0001f4bb
p6040
aa(lp6041
Vdesktop-computer
p6042
aV\U0001f5a5\ufe0f
p6043
aa(lp6044
Vprinter
p6045
aV\U0001f5a8\ufe0f
p6046
aa(lp6047
Vkeyboard
p6048
aV\u2328\ufe0f
p6049
aa(lp6050
Vthree-button-mouse
p6051
aV\U0001f5b1\ufe0f
p6052
aa(lp6053
Vtrackball
p6054
aV\U0001f5b2\ufe0f
p6055
aa(lp6056
Vminidisc
p6057
aV\U0001f4bd
p6058
aa(lp6059
Vfloppy-disk
p6060
aV\U0001f4be
p6061
aa(lp6062
Voptical-disc
p6063
aV\U0001f4bf
p6064
aa(lp6065
Vdvd
p6066
aV\U0001f4c0
p6067
aa(lp6068
Vmovie-camera
p6069
aV\U0001f3a5
p6070
aa(lp6071
Vfilm-frames
p6072
aV\U0001f39e\ufe0f
p6073
aa(lp6074
Vfilm-projector
p6075
aV\U0001f4fd\ufe0f
p6076
aa(lp6077
Vclapper-board
p6078
aV\U0001f3ac
p6079
aa(lp6080
Vtelevision
p6081
aV\U0001f4fa
p6082
aa(lp6083
Vcamera
p6084
aV\U0001f4f7
p6085
aa(lp6086
Vcamera-with-flash
p6087
aV\U0001f4f8
p6088
aa(lp6089
Vvideo-camera
p6090
aV\U0001f4f9
p6091
aa(lp6092
Vvideocassette
p6093
aV\U0001f4fc
p6094
aa(lp6095
Vleft-pointing-magnifying-glass
p6096
aV\U0001f50d
p6097
aa(lp6098
Vright-pointing-magnifying-glass
p6099
aV\U0001f50e
p6100
aa(lp6101
Vcandle
p6102
aV\U0001f56f\ufe0f
p6103
aa(lp6104
Velectric-light-bulb
p6105
aV\U0001f4a1
p6106
aa(lp6107
Velectric-torch
p6108
aV\U0001f526
p6109
aa(lp6110
Vizakaya-lantern
p6111
aV\U0001f3ee
p6112
aa(lp6113
Vnotebook-with-decorative-cover
p6114
aV\U0001f4d4
p6115
aa(lp6116
Vclosed-book
p6117
aV\U0001f4d5
p6118
aa(lp6119
Vopen-book
p6120
aV\U0001f4d6
p6121
aa(lp6122
Vgreen-book
p6123
aV\U0001f4d7
p6124
aa(lp6125
Vblue-book
p6126
aV\U0001f4d8
p6127
aa(lp6128
Vorange-book
p6129
aV\U0001f4d9
p6130
aa(lp6131
Vbooks
p6132
aV\U0001f4da
p6133
aa(lp6134
Vnotebook
p6135
aV\U0001f4d3
p6136
aa(lp6137
Vledger
p6138
aV\U0001f4d2
p6139
aa(lp6140
Vpage-with-curl
p6141
aV\U0001f4c3
p6142
aa(lp6143
Vscroll
p6144
aV\U0001f4dc
p6145
aa(lp6146
Vpage-facing-up
p6147
aV\U0001f4c4
p6148
aa(lp6149
Vnewspaper
p6150
aV\U0001f4f0
p6151
aa(lp6152
Vrolled-up-newspaper
p6153
aV\U0001f5de\ufe0f
p6154
aa(lp6155
Vbookmark-tabs
p6156
aV\U0001f4d1
p6157
aa(lp6158
Vbookmark
p6159
aV\U0001f516
p6160
aa(lp6161
Vlabel
p6162
aV\U0001f3f7\ufe0f
p6163
aa(lp6164
Vmoney-bag
p6165
aV\U0001f4b0
p6166
aa(lp6167
Vbanknote-with-yen-sign
p6168
aV\U0001f4b4
p6169
aa(lp6170
Vbanknote-with-dollar-sign
p6171
aV\U0001f4b5
p6172
aa(lp6173
Vbanknote-with-euro-sign
p6174
aV\U0001f4b6
p6175
aa(lp6176
Vbanknote-with-pound-sign
p6177
aV\U0001f4b7
p6178
aa(lp6179
Vmoney-with-wings
p6180
aV\U0001f4b8
p6181
aa(lp6182
Vcredit-card
p6183
aV\U0001f4b3
p6184
aa(lp6185
Vchart-with-upwards-trend-and-yen-sign
p6186
aV\U0001f4b9
p6187
aa(lp6188
Vcurrency-exchange
p6189
aV\U0001f4b1
p6190
aa(lp6191
Vheavy-dollar-sign
p6192
aV\U0001f4b2
p6193
aa(lp6194
Venvelope
p6195
aV\u2709\ufe0f
p6196
aa(lp6197
Ve-mail-symbol
p6198
aV\U0001f4e7
p6199
aa(lp6200
Vincoming-envelope
p6201
aV\U0001f4e8
p6202
aa(lp6203
Venvelope-with-downwards-arrow-above
p6204
aV\U0001f4e9
p6205
aa(lp6206
Voutbox-tray
p6207
aV\U0001f4e4
p6208
aa(lp6209
Vinbox-tray
p6210
aV\U0001f4e5
p6211
aa(lp6212
Vpackage
p6213
aV\U0001f4e6
p6214
aa(lp6215
Vclosed-mailbox-with-raised-flag
p6216
aV\U0001f4eb
p6217
aa(lp6218
Vclosed-mailbox-with-lowered-flag
p6219
aV\U0001f4ea
p6220
aa(lp6221
Vopen-mailbox-with-raised-flag
p6222
aV\U0001f4ec
p6223
aa(lp6224
Vopen-mailbox-with-lowered-flag
p6225
aV\U0001f4ed
p6226
aa(lp6227
Vpostbox
p6228
aV\U0001f4ee
p6229
aa(lp6230
Vballot-box-with-ballot
p6231
aV\U0001f5f3\ufe0f
p6232
aa(lp6233
Vpencil
p6234
aV\u270f\ufe0f
p6235
aa(lp6236
Vblack-nib
p6237
aV\u2712\ufe0f
p6238
aa(lp6239
Vlower-left-fountain-pen
p6240
aV\U0001f58b\ufe0f
p6241
aa(lp6242
Vlower-left-ballpoint-pen
p6243
aV\U0001f58a\ufe0f
p6244
aa(lp6245
Vlower-left-paintbrush
p6246
aV\U0001f58c\ufe0f
p6247
aa(lp6248
Vlower-left-crayon
p6249
aV\U0001f58d\ufe0f
p6250
aa(lp6251
Vmemo
p6252
aV\U0001f4dd
p6253
aa(lp6254
Vbriefcase
p6255
aV\U0001f4bc
p6256
aa(lp6257
Vfile-folder
p6258
aV\U0001f4c1
p6259
aa(lp6260
Vopen-file-folder
p6261
aV\U0001f4c2
p6262
aa(lp6263
Vcard-index-dividers
p6264
aV\U0001f5c2\ufe0f
p6265
aa(lp6266
Vcalendar
p6267
aV\U0001f4c5
p6268
aa(lp6269
Vtear-off-calendar
p6270
aV\U0001f4c6
p6271
aa(lp6272
Vspiral-note-pad
p6273
aV\U0001f5d2\ufe0f
p6274
aa(lp6275
Vspiral-calendar-pad
p6276
aV\U0001f5d3\ufe0f
p6277
aa(lp6278
Vcard-index
p6279
aV\U0001f4c7
p6280
aa(lp6281
Vchart-with-upwards-trend
p6282
aV\U0001f4c8
p6283
aa(lp6284
Vchart-with-downwards-trend
p6285
aV\U0001f4c9
p6286
aa(lp6287
Vbar-chart
p6288
aV\U0001f4ca
p6289
aa(lp6290
Vclipboard
p6291
aV\U0001f4cb
p6292
aa(lp6293
Vpushpin
p6294
aV\U0001f4cc
p6295
aa(lp6296
Vround-pushpin
p6297
aV\U0001f4cd
p6298
aa(lp6299
Vpaperclip
p6300
aV\U0001f4ce
p6301
aa(lp6302
Vlinked-paperclips
p6303
aV\U0001f587\ufe0f
p6304
aa(lp6305
Vstraight-ruler
p6306
aV\U0001f4cf
p6307
aa(lp6308
Vtriangular-ruler
p6309
aV\U0001f4d0
p6310
aa(lp6311
Vblack-scissors
p6312
aV\u2702\ufe0f
p6313
aa(lp6314
Vcard-file-box
p6315
aV\U0001f5c3\ufe0f
p6316
aa(lp6317
Vfile-cabinet
p6318
aV\U0001f5c4\ufe0f
p6319
aa(lp6320
Vwastebasket
p6321
aV\U0001f5d1\ufe0f
p6322
aa(lp6323
Vlock
p6324
aV\U0001f512
p6325
aa(lp6326
Vopen-lock
p6327
aV\U0001f513
p6328
aa(lp6329
Vlock-with-ink-pen
p6330
aV\U0001f50f
p6331
aa(lp6332
Vclosed-lock-with-key
p6333
aV\U0001f510
p6334
aa(lp6335
Vkey
p6336
aV\U0001f511
p6337
aa(lp6338
Vold-key
p6339
aV\U0001f5dd\ufe0f
p6340
aa(lp6341
Vhammer
p6342
aV\U0001f528
p6343
aa(lp6344
Vpick
p6345
aV\u26cf\ufe0f
p6346
aa(lp6347
Vhammer-and-pick
p6348
aV\u2692\ufe0f
p6349
aa(lp6350
Vhammer-and-wrench
p6351
aV\U0001f6e0\ufe0f
p6352
aa(lp6353
Vdagger-knife
p6354
aV\U0001f5e1\ufe0f
p6355
aa(lp6356
Vcrossed-swords
p6357
aV\u2694\ufe0f
p6358
aa(lp6359
Vpistol
p6360
aV\U0001f52b
p6361
aa(lp6362
Vbow-and-arrow
p6363
aV\U0001f3f9
p6364
aa(lp6365
Vshield
p6366
aV\U0001f6e1\ufe0f
p6367
aa(lp6368
Vwrench
p6369
aV\U0001f527
p6370
aa(lp6371
Vnut-and-bolt
p6372
aV\U0001f529
p6373
aa(lp6374
Vgear
p6375
aV\u2699\ufe0f
p6376
aa(lp6377
Vcompression
p6378
aV\U0001f5dc\ufe0f
p6379
aa(lp6380
Vscales
p6381
aV\u2696\ufe0f
p6382
aa(lp6383
Vlink-symbol
p6384
aV\U0001f517
p6385
aa(lp6386
Vchains
p6387
aV\u26d3\ufe0f
p6388
aa(lp6389
Valembic
p6390
aV\u2697\ufe0f
p6391
aa(lp6392
Vmicroscope
p6393
aV\U0001f52c
p6394
aa(lp6395
Vtelescope
p6396
aV\U0001f52d
p6397
aa(lp6398
Vsatellite-antenna
p6399
aV\U0001f4e1
p6400
aa(lp6401
Vsyringe
p6402
aV\U0001f489
p6403
aa(lp6404
Vpill
p6405
aV\U0001f48a
p6406
aa(lp6407
Vdoor
p6408
aV\U0001f6aa
p6409
aa(lp6410
Vbed
p6411
aV\U0001f6cf\ufe0f
p6412
aa(lp6413
Vcouch-and-lamp
p6414
aV\U0001f6cb\ufe0f
p6415
aa(lp6416
Vtoilet
p6417
aV\U0001f6bd
p6418
aa(lp6419
Vshower
p6420
aV\U0001f6bf
p6421
aa(lp6422
Vbathtub
p6423
aV\U0001f6c1
p6424
aa(lp6425
Vshopping-trolley
p6426
aV\U0001f6d2
p6427
aa(lp6428
Vsmoking-symbol
p6429
aV\U0001f6ac
p6430
aa(lp6431
Vcoffin
p6432
aV\u26b0\ufe0f
p6433
aa(lp6434
Vfuneral-urn
p6435
aV\u26b1\ufe0f
p6436
aa(lp6437
Vmoyai
p6438
aV\U0001f5ff
p6439
aa(lp6440
Vautomated-teller-machine
p6441
aV\U0001f3e7
p6442
aa(lp6443
Vput-litter-in-its-place-symbol
p6444
aV\U0001f6ae
p6445
aa(lp6446
Vpotable-water-symbol
p6447
aV\U0001f6b0
p6448
aa(lp6449
Vwheelchair-symbol
p6450
aV\u267f
p6451
aa(lp6452
Vmens-symbol
p6453
aV\U0001f6b9
p6454
aa(lp6455
Vwomens-symbol
p6456
aV\U0001f6ba
p6457
aa(lp6458
Vrestroom
p6459
aV\U0001f6bb
p6460
aa(lp6461
Vbaby-symbol
p6462
aV\U0001f6bc
p6463
aa(lp6464
Vwater-closet
p6465
aV\U0001f6be
p6466
aa(lp6467
Vpassport-control
p6468
aV\U0001f6c2
p6469
aa(lp6470
Vcustoms
p6471
aV\U0001f6c3
p6472
aa(lp6473
Vbaggage-claim
p6474
aV\U0001f6c4
p6475
aa(lp6476
Vleft-luggage
p6477
aV\U0001f6c5
p6478
aa(lp6479
Vwarning-sign
p6480
aV\u26a0\ufe0f
p6481
aa(lp6482
Vchildren-crossing
p6483
aV\U0001f6b8
p6484
aa(lp6485
Vno-entry
p6486
aV\u26d4
p6487
aa(lp6488
Vno-entry-sign
p6489
aV\U0001f6ab
p6490
aa(lp6491
Vno-bicycles
p6492
aV\U0001f6b3
p6493
aa(lp6494
Vno-smoking-symbol
p6495
aV\U0001f6ad
p6496
aa(lp6497
Vdo-not-litter-symbol
p6498
aV\U0001f6af
p6499
aa(lp6500
Vnon-potable-water-symbol
p6501
aV\U0001f6b1
p6502
aa(lp6503
Vno-pedestrians
p6504
aV\U0001f6b7
p6505
aa(lp6506
Vno-mobile-phones
p6507
aV\U0001f4f5
p6508
aa(lp6509
Vno-one-under-eighteen-symbol
p6510
aV\U0001f51e
p6511
aa(lp6512
Vradioactive-sign
p6513
aV\u2622\ufe0f
p6514
aa(lp6515
Vbiohazard-sign
p6516
aV\u2623\ufe0f
p6517
aa(lp6518
Vupwards-black-arrow
p6519
aV\u2b06\ufe0f
p6520
aa(lp6521
Vnorth-east-arrow
p6522
aV\u2197\ufe0f
p6523
aa(lp6524
Vblack-rightwards-arrow
p6525
aV\u27a1\ufe0f
p6526
aa(lp6527
Vsouth-east-arrow
p6528
aV\u2198\ufe0f
p6529
aa(lp6530
Vdownwards-black-arrow
p6531
aV\u2b07\ufe0f
p6532
aa(lp6533
Vsouth-west-arrow
p6534
aV\u2199\ufe0f
p6535
aa(lp6536
Vleftwards-black-arrow
p6537
aV\u2b05\ufe0f
p6538
aa(lp6539
Vnorth-west-arrow
p6540
aV\u2196\ufe0f
p6541
aa(lp6542
Vup-down-arrow
p6543
aV\u2195\ufe0f
p6544
aa(lp6545
Vleft-right-arrow
p6546
aV\u2194\ufe0f
p6547
aa(lp6548
Vleftwards-arrow-with-hook
p6549
aV\u21a9\ufe0f
p6550
aa(lp6551
Vrightwards-arrow-with-hook
p6552
aV\u21aa\ufe0f
p6553
aa(lp6554
Varrow-pointing-rightwards-then-curving-upwards
p6555
aV\u2934\ufe0f
p6556
aa(lp6557
Varrow-pointing-rightwards-then-curving-downwards
p6558
aV\u2935\ufe0f
p6559
aa(lp6560
Vclockwise-downwards-and-upwards-open-circle-arrows
p6561
aV\U0001f503
p6562
aa(lp6563
Vanticlockwise-downwards-and-upwards-open-circle-arrows
p6564
aV\U0001f504
p6565
aa(lp6566
Vback-with-leftwards-arrow-above
p6567
aV\U0001f519
p6568
aa(lp6569
Vend-with-leftwards-arrow-above
p6570
aV\U0001f51a
p6571
aa(lp6572
Von-with-exclamation-mark-with-left-right-arrow-above
p6573
aV\U0001f51b
p6574
aa(lp6575
Vsoon-with-rightwards-arrow-above
p6576
aV\U0001f51c
p6577
aa(lp6578
Vtop-with-upwards-arrow-above
p6579
aV\U0001f51d
p6580
aa(lp6581
Vplace-of-worship
p6582
aV\U0001f6d0
p6583
aa(lp6584
Vatom-symbol
p6585
aV\u269b\ufe0f
p6586
aa(lp6587
Vom-symbol
p6588
aV\U0001f549\ufe0f
p6589
aa(lp6590
Vstar-of-david
p6591
aV\u2721\ufe0f
p6592
aa(lp6593
Vwheel-of-dharma
p6594
aV\u2638\ufe0f
p6595
aa(lp6596
Vyin-yang
p6597
aV\u262f\ufe0f
p6598
aa(lp6599
Vlatin-cross
p6600
aV\u271d\ufe0f
p6601
aa(lp6602
Vorthodox-cross
p6603
aV\u2626\ufe0f
p6604
aa(lp6605
Vstar-and-crescent
p6606
aV\u262a\ufe0f
p6607
aa(lp6608
Vpeace-symbol
p6609
aV\u262e\ufe0f
p6610
aa(lp6611
Vmenorah-with-nine-branches
p6612
aV\U0001f54e
p6613
aa(lp6614
Vsix-pointed-star-with-middle-dot
p6615
aV\U0001f52f
p6616
aa(lp6617
Varies
p6618
aV\u2648
p6619
aa(lp6620
Vtaurus
p6621
aV\u2649
p6622
aa(lp6623
Vgemini
p6624
aV\u264a
p6625
aa(lp6626
Vcancer
p6627
aV\u264b
p6628
aa(lp6629
Vleo
p6630
aV\u264c
p6631
aa(lp6632
Vvirgo
p6633
aV\u264d
p6634
aa(lp6635
Vlibra
p6636
aV\u264e
p6637
aa(lp6638
Vscorpius
p6639
aV\u264f
p6640
aa(lp6641
Vsagittarius
p6642
aV\u2650
p6643
aa(lp6644
Vcapricorn
p6645
aV\u2651
p6646
aa(lp6647
Vaquarius
p6648
aV\u2652
p6649
aa(lp6650
Vpisces
p6651
aV\u2653
p6652
aa(lp6653
Vophiuchus
p6654
aV\u26ce
p6655
aa(lp6656
Vtwisted-rightwards-arrows
p6657
aV\U0001f500
p6658
aa(lp6659
Vclockwise-rightwards-and-leftwards-open-circle-arrows
p6660
aV\U0001f501
p6661
aa(lp6662
Vclockwise-rightwards-and-leftwards-open-circle-arrows-with-circled-one-overlay
p6663
aV\U0001f502
p6664
aa(lp6665
Vblack-right-pointing-triangle
p6666
aV\u25b6\ufe0f
p6667
aa(lp6668
Vblack-right-pointing-double-triangle
p6669
aV\u23e9
p6670
aa(lp6671
Vblack-right-pointing-double-triangle-with-vertical-bar
p6672
aV\u23ed\ufe0f
p6673
aa(lp6674
Vblack-right-pointing-triangle-with-double-vertical-bar
p6675
aV\u23ef\ufe0f
p6676
aa(lp6677
Vblack-left-pointing-triangle
p6678
aV\u25c0\ufe0f
p6679
aa(lp6680
Vblack-left-pointing-double-triangle
p6681
aV\u23ea
p6682
aa(lp6683
Vblack-left-pointing-double-triangle-with-vertical-bar
p6684
aV\u23ee\ufe0f
p6685
aa(lp6686
Vup-pointing-small-red-triangle
p6687
aV\U0001f53c
p6688
aa(lp6689
Vblack-up-pointing-double-triangle
p6690
aV\u23eb
p6691
aa(lp6692
Vdown-pointing-small-red-triangle
p6693
aV\U0001f53d
p6694
aa(lp6695
Vblack-down-pointing-double-triangle
p6696
aV\u23ec
p6697
aa(lp6698
Vdouble-vertical-bar
p6699
aV\u23f8\ufe0f
p6700
aa(lp6701
Vblack-square-for-stop
p6702
aV\u23f9\ufe0f
p6703
aa(lp6704
Vblack-circle-for-record
p6705
aV\u23fa\ufe0f
p6706
aa(lp6707
Veject-symbol
p6708
aV\u23cf\ufe0f
p6709
aa(lp6710
Vcinema
p6711
aV\U0001f3a6
p6712
aa(lp6713
Vlow-brightness-symbol
p6714
aV\U0001f505
p6715
aa(lp6716
Vhigh-brightness-symbol
p6717
aV\U0001f506
p6718
aa(lp6719
Vantenna-with-bars
p6720
aV\U0001f4f6
p6721
aa(lp6722
Vvibration-mode
p6723
aV\U0001f4f3
p6724
aa(lp6725
Vmobile-phone-off
p6726
aV\U0001f4f4
p6727
aa(lp6728
Vblack-universal-recycling-symbol
p6729
aV\u267b\ufe0f
p6730
aa(lp6731
Vfleur-de-lis
p6732
aV\u269c\ufe0f
p6733
aa(lp6734
Vtrident-emblem
p6735
aV\U0001f531
p6736
aa(lp6737
Vname-badge
p6738
aV\U0001f4db
p6739
aa(lp6740
Vjapanese-symbol-for-beginner
p6741
aV\U0001f530
p6742
aa(lp6743
Vheavy-large-circle
p6744
aV\u2b55
p6745
aa(lp6746
Vwhite-heavy-check-mark
p6747
aV\u2705
p6748
aa(lp6749
Vballot-box-with-check
p6750
aV\u2611\ufe0f
p6751
aa(lp6752
Vheavy-check-mark
p6753
aV\u2714\ufe0f
p6754
aa(lp6755
Vheavy-multiplication-x
p6756
aV\u2716\ufe0f
p6757
aa(lp6758
Vcross-mark
p6759
aV\u274c
p6760
aa(lp6761
Vnegative-squared-cross-mark
p6762
aV\u274e
p6763
aa(lp6764
Vheavy-plus-sign
p6765
aV\u2795
p6766
aa(lp6767
Vheavy-minus-sign
p6768
aV\u2796
p6769
aa(lp6770
Vheavy-division-sign
p6771
aV\u2797
p6772
aa(lp6773
Vcurly-loop
p6774
aV\u27b0
p6775
aa(lp6776
Vdouble-curly-loop
p6777
aV\u27bf
p6778
aa(lp6779
Vpart-alternation-mark
p6780
aV\u303d\ufe0f
p6781
aa(lp6782
Veight-spoked-asterisk
p6783
aV\u2733\ufe0f
p6784
aa(lp6785
Veight-pointed-black-star
p6786
aV\u2734\ufe0f
p6787
aa(lp6788
Vsparkle
p6789
aV\u2747\ufe0f
p6790
aa(lp6791
Vdouble-exclamation-mark
p6792
aV\u203c\ufe0f
p6793
aa(lp6794
Vexclamation-question-mark
p6795
aV\u2049\ufe0f
p6796
aa(lp6797
Vblack-question-mark-ornament
p6798
aV\u2753
p6799
aa(lp6800
Vwhite-question-mark-ornament
p6801
aV\u2754
p6802
aa(lp6803
Vwhite-exclamation-mark-ornament
p6804
aV\u2755
p6805
aa(lp6806
Vheavy-exclamation-mark-symbol
p6807
aV\u2757
p6808
aa(lp6809
Vwavy-dash
p6810
aV\u3030\ufe0f
p6811
aa(lp6812
Vcopyright-sign
p6813
aV\ufe0f
p6814
aa(lp6815
Vregistered-sign
p6816
aV\ufe0f
p6817
aa(lp6818
Vtrade-mark-sign
p6819
aV\u2122\ufe0f
p6820
aa(lp6821
Vkeycap-number-sign
p6822
aV#\ufe0f\u20e3
p6823
aa(lp6824
Vkeycap-asterisk
p6825
aV*\ufe0f\u20e3
p6826
aa(lp6827
Vkeycap-digit-zero
p6828
aV0\ufe0f\u20e3
p6829
aa(lp6830
Vkeycap-digit-one
p6831
aV1\ufe0f\u20e3
p6832
aa(lp6833
Vkeycap-digit-two
p6834
aV2\ufe0f\u20e3
p6835
aa(lp6836
Vkeycap-digit-three
p6837
aV3\ufe0f\u20e3
p6838
aa(lp6839
Vkeycap-digit-four
p6840
aV4\ufe0f\u20e3
p6841
aa(lp6842
Vkeycap-digit-five
p6843
aV5\ufe0f\u20e3
p6844
aa(lp6845
Vkeycap-digit-six
p6846
aV6\ufe0f\u20e3
p6847
aa(lp6848
Vkeycap-digit-seven
p6849
aV7\ufe0f\u20e3
p6850
aa(lp6851
Vkeycap-digit-eight
p6852
aV8\ufe0f\u20e3
p6853
aa(lp6854
Vkeycap-digit-nine
p6855
aV9\ufe0f\u20e3
p6856
aa(lp6857
Vkeycap-ten
p6858
aV\U0001f51f
p6859
aa(lp6860
Vhundred-points-symbol
p6861
aV\U0001f4af
p6862
aa(lp6863
Vinput-symbol-for-latin-capital-letters
p6864
aV\U0001f520
p6865
aa(lp6866
Vinput-symbol-for-latin-small-letters
p6867
aV\U0001f521
p6868
aa(lp6869
Vinput-symbol-for-numbers
p6870
aV\U0001f522
p6871
aa(lp6872
Vinput-symbol-for-symbols
p6873
aV\U0001f523
p6874
aa(lp6875
Vinput-symbol-for-latin-letters
p6876
aV\U0001f524
p6877
aa(lp6878
Vnegative-squared-latin-capital-letter-a
p6879
aV\U0001f170\ufe0f
p6880
aa(lp6881
Vnegative-squared-ab
p6882
aV\U0001f18e
p6883
aa(lp6884
Vnegative-squared-latin-capital-letter-b
p6885
aV\U0001f171\ufe0f
p6886
aa(lp6887
Vsquared-cl
p6888
aV\U0001f191
p6889
aa(lp6890
Vsquared-cool
p6891
aV\U0001f192
p6892
aa(lp6893
Vsquared-free
p6894
aV\U0001f193
p6895
aa(lp6896
Vinformation-source
p6897
aV\u2139\ufe0f
p6898
aa(lp6899
Vsquared-id
p6900
aV\U0001f194
p6901
aa(lp6902
Vcircled-latin-capital-letter-m
p6903
aV\u24c2\ufe0f
p6904
aa(lp6905
Vsquared-new
p6906
aV\U0001f195
p6907
aa(lp6908
Vsquared-ng
p6909
aV\U0001f196
p6910
aa(lp6911
Vnegative-squared-latin-capital-letter-o
p6912
aV\U0001f17e\ufe0f
p6913
aa(lp6914
Vsquared-ok
p6915
aV\U0001f197
p6916
aa(lp6917
Vnegative-squared-latin-capital-letter-p
p6918
aV\U0001f17f\ufe0f
p6919
aa(lp6920
Vsquared-sos
p6921
aV\U0001f198
p6922
aa(lp6923
Vsquared-up-with-exclamation-mark
p6924
aV\U0001f199
p6925
aa(lp6926
Vsquared-vs
p6927
aV\U0001f19a
p6928
aa(lp6929
Vsquared-katakana-koko
p6930
aV\U0001f201
p6931
aa(lp6932
Vsquared-katakana-sa
p6933
aV\U0001f202\ufe0f
p6934
aa(lp6935
Vsquared-cjk-unified-ideograph-6708
p6936
aV\U0001f237\ufe0f
p6937
aa(lp6938
Vsquared-cjk-unified-ideograph-6709
p6939
aV\U0001f236
p6940
aa(lp6941
Vsquared-cjk-unified-ideograph-6307
p6942
aV\U0001f22f
p6943
aa(lp6944
Vcircled-ideograph-advantage
p6945
aV\U0001f250
p6946
aa(lp6947
Vsquared-cjk-unified-ideograph-5272
p6948
aV\U0001f239
p6949
aa(lp6950
Vsquared-cjk-unified-ideograph-7121
p6951
aV\U0001f21a
p6952
aa(lp6953
Vsquared-cjk-unified-ideograph-7981
p6954
aV\U0001f232
p6955
aa(lp6956
Vcircled-ideograph-accept
p6957
aV\U0001f251
p6958
aa(lp6959
Vsquared-cjk-unified-ideograph-7533
p6960
aV\U0001f238
p6961
aa(lp6962
Vsquared-cjk-unified-ideograph-5408
p6963
aV\U0001f234
p6964
aa(lp6965
Vsquared-cjk-unified-ideograph-7a7a
p6966
aV\U0001f233
p6967
aa(lp6968
Vcircled-ideograph-congratulation
p6969
aV\u3297\ufe0f
p6970
aa(lp6971
Vcircled-ideograph-secret
p6972
aV\u3299\ufe0f
p6973
aa(lp6974
Vsquared-cjk-unified-ideograph-55b6
p6975
aV\U0001f23a
p6976
aa(lp6977
Vsquared-cjk-unified-ideograph-6e80
p6978
aV\U0001f235
p6979
aa(lp6980
Vblack-small-square
p6981
aV\u25aa\ufe0f
p6982
aa(lp6983
Vwhite-small-square
p6984
aV\u25ab\ufe0f
p6985
aa(lp6986
Vwhite-medium-square
p6987
aV\u25fb\ufe0f
p6988
aa(lp6989
Vblack-medium-square
p6990
aV\u25fc\ufe0f
p6991
aa(lp6992
Vwhite-medium-small-square
p6993
aV\u25fd
p6994
aa(lp6995
Vblack-medium-small-square
p6996
aV\u25fe
p6997
aa(lp6998
Vblack-large-square
p6999
aV\u2b1b
p7000
aa(lp7001
Vwhite-large-square
p7002
aV\u2b1c
p7003
aa(lp7004
Vlarge-orange-diamond
p7005
aV\U0001f536
p7006
aa(lp7007
Vlarge-blue-diamond
p7008
aV\U0001f537
p7009
aa(lp7010
Vsmall-orange-diamond
p7011
aV\U0001f538
p7012
aa(lp7013
Vsmall-blue-diamond
p7014
aV\U0001f539
p7015
aa(lp7016
Vup-pointing-red-triangle
p7017
aV\U0001f53a
p7018
aa(lp7019
Vdown-pointing-red-triangle
p7020
aV\U0001f53b
p7021
aa(lp7022
Vdiamond-shape-with-a-dot-inside
p7023
aV\U0001f4a0
p7024
aa(lp7025
Vradio-button
p7026
aV\U0001f518
p7027
aa(lp7028
Vblack-square-button
p7029
aV\U0001f532
p7030
aa(lp7031
Vwhite-square-button
p7032
aV\U0001f533
p7033
aa(lp7034
Vmedium-white-circle
p7035
aV\u26aa
p7036
aa(lp7037
Vmedium-black-circle
p7038
aV\u26ab
p7039
aa(lp7040
Vlarge-red-circle
p7041
aV\U0001f534
p7042
aa(lp7043
Vlarge-blue-circle
p7044
aV\U0001f535
p7045
aa(lp7046
Vchequered-flag
p7047
aV\U0001f3c1
p7048
aa(lp7049
Vtriangular-flag-on-post
p7050
aV\U0001f6a9
p7051
aa(lp7052
Vcrossed-flags
p7053
aV\U0001f38c
p7054
aa(lp7055
Vwaving-black-flag
p7056
aV\U0001f3f4
p7057
aa(lp7058
Vwaving-white-flag
p7059
aV\U0001f3f3\ufe0f
p7060
aa(lp7061
Vrainbow-flag
p7062
aV\U0001f3f3\ufe0f\u200d\U0001f308
p7063
aa(lp7064
Vflag-for-ascension-island
p7065
aV\U0001f1e6\U0001f1e8
p7066
aa(lp7067
Vflag-for-andorra
p7068
aV\U0001f1e6\U0001f1e9
p7069
aa(lp7070
Vflag-for-united-arab-emirates
p7071
aV\U0001f1e6\U0001f1ea
p7072
aa(lp7073
Vflag-for-afghanistan
p7074
aV\U0001f1e6\U0001f1eb
p7075
aa(lp7076
Vflag-for-antigua-barbuda
p7077
aV\U0001f1e6\U0001f1ec
p7078
aa(lp7079
Vflag-for-anguilla
p7080
aV\U0001f1e6\U0001f1ee
p7081
aa(lp7082
Vflag-for-albania
p7083
aV\U0001f1e6\U0001f1f1
p7084
aa(lp7085
Vflag-for-armenia
p7086
aV\U0001f1e6\U0001f1f2
p7087
aa(lp7088
Vflag-for-angola
p7089
aV\U0001f1e6\U0001f1f4
p7090
aa(lp7091
Vflag-for-antarctica
p7092
aV\U0001f1e6\U0001f1f6
p7093
aa(lp7094
Vflag-for-argentina
p7095
aV\U0001f1e6\U0001f1f7
p7096
aa(lp7097
Vflag-for-american-samoa
p7098
aV\U0001f1e6\U0001f1f8
p7099
aa(lp7100
Vflag-for-austria
p7101
aV\U0001f1e6\U0001f1f9
p7102
aa(lp7103
Vflag-for-australia
p7104
aV\U0001f1e6\U0001f1fa
p7105
aa(lp7106
Vflag-for-aruba
p7107
aV\U0001f1e6\U0001f1fc
p7108
aa(lp7109
Vflag-for-aland-islands
p7110
aV\U0001f1e6\U0001f1fd
p7111
aa(lp7112
Vflag-for-azerbaijan
p7113
aV\U0001f1e6\U0001f1ff
p7114
aa(lp7115
Vflag-for-bosnia-herzegovina
p7116
aV\U0001f1e7\U0001f1e6
p7117
aa(lp7118
Vflag-for-barbados
p7119
aV\U0001f1e7\U0001f1e7
p7120
aa(lp7121
Vflag-for-bangladesh
p7122
aV\U0001f1e7\U0001f1e9
p7123
aa(lp7124
Vflag-for-belgium
p7125
aV\U0001f1e7\U0001f1ea
p7126
aa(lp7127
Vflag-for-burkina-faso
p7128
aV\U0001f1e7\U0001f1eb
p7129
aa(lp7130
Vflag-for-bulgaria
p7131
aV\U0001f1e7\U0001f1ec
p7132
aa(lp7133
Vflag-for-bahrain
p7134
aV\U0001f1e7\U0001f1ed
p7135
aa(lp7136
Vflag-for-burundi
p7137
aV\U0001f1e7\U0001f1ee
p7138
aa(lp7139
Vflag-for-benin
p7140
aV\U0001f1e7\U0001f1ef
p7141
aa(lp7142
Vflag-for-st-barthelemy
p7143
aV\U0001f1e7\U0001f1f1
p7144
aa(lp7145
Vflag-for-bermuda
p7146
aV\U0001f1e7\U0001f1f2
p7147
aa(lp7148
Vflag-for-brunei
p7149
aV\U0001f1e7\U0001f1f3
p7150
aa(lp7151
Vflag-for-bolivia
p7152
aV\U0001f1e7\U0001f1f4
p7153
aa(lp7154
Vflag-for-caribbean-netherlands
p7155
aV\U0001f1e7\U0001f1f6
p7156
aa(lp7157
Vflag-for-brazil
p7158
aV\U0001f1e7\U0001f1f7
p7159
aa(lp7160
Vflag-for-bahamas
p7161
aV\U0001f1e7\U0001f1f8
p7162
aa(lp7163
Vflag-for-bhutan
p7164
aV\U0001f1e7\U0001f1f9
p7165
aa(lp7166
Vflag-for-botswana
p7167
aV\U0001f1e7\U0001f1fc
p7168
aa(lp7169
Vflag-for-belarus
p7170
aV\U0001f1e7\U0001f1fe
p7171
aa(lp7172
Vflag-for-belize
p7173
aV\U0001f1e7\U0001f1ff
p7174
aa(lp7175
Vflag-for-canada
p7176
aV\U0001f1e8\U0001f1e6
p7177
aa(lp7178
Vflag-for-cocos-islands
p7179
aV\U0001f1e8\U0001f1e8
p7180
aa(lp7181
Vflag-for-congo-kinshasa
p7182
aV\U0001f1e8\U0001f1e9
p7183
aa(lp7184
Vflag-for-central-african-republic
p7185
aV\U0001f1e8\U0001f1eb
p7186
aa(lp7187
Vflag-for-congo-brazzaville
p7188
aV\U0001f1e8\U0001f1ec
p7189
aa(lp7190
Vflag-for-switzerland
p7191
aV\U0001f1e8\U0001f1ed
p7192
aa(lp7193
Vflag-for-cote-divoire
p7194
aV\U0001f1e8\U0001f1ee
p7195
aa(lp7196
Vflag-for-cook-islands
p7197
aV\U0001f1e8\U0001f1f0
p7198
aa(lp7199
Vflag-for-chile
p7200
aV\U0001f1e8\U0001f1f1
p7201
aa(lp7202
Vflag-for-cameroon
p7203
aV\U0001f1e8\U0001f1f2
p7204
aa(lp7205
Vflag-for-china
p7206
aV\U0001f1e8\U0001f1f3
p7207
aa(lp7208
Vflag-for-colombia
p7209
aV\U0001f1e8\U0001f1f4
p7210
aa(lp7211
Vflag-for-clipperton-island
p7212
aV\U0001f1e8\U0001f1f5
p7213
aa(lp7214
Vflag-for-costa-rica
p7215
aV\U0001f1e8\U0001f1f7
p7216
aa(lp7217
Vflag-for-cuba
p7218
aV\U0001f1e8\U0001f1fa
p7219
aa(lp7220
Vflag-for-cape-verde
p7221
aV\U0001f1e8\U0001f1fb
p7222
aa(lp7223
Vflag-for-curacao
p7224
aV\U0001f1e8\U0001f1fc
p7225
aa(lp7226
Vflag-for-christmas-island
p7227
aV\U0001f1e8\U0001f1fd
p7228
aa(lp7229
Vflag-for-cyprus
p7230
aV\U0001f1e8\U0001f1fe
p7231
aa(lp7232
Vflag-for-czech-republic
p7233
aV\U0001f1e8\U0001f1ff
p7234
aa(lp7235
Vflag-for-germany
p7236
aV\U0001f1e9\U0001f1ea
p7237
aa(lp7238
Vflag-for-diego-garcia
p7239
aV\U0001f1e9\U0001f1ec
p7240
aa(lp7241
Vflag-for-djibouti
p7242
aV\U0001f1e9\U0001f1ef
p7243
aa(lp7244
Vflag-for-denmark
p7245
aV\U0001f1e9\U0001f1f0
p7246
aa(lp7247
Vflag-for-dominica
p7248
aV\U0001f1e9\U0001f1f2
p7249
aa(lp7250
Vflag-for-dominican-republic
p7251
aV\U0001f1e9\U0001f1f4
p7252
aa(lp7253
Vflag-for-algeria
p7254
aV\U0001f1e9\U0001f1ff
p7255
aa(lp7256
Vflag-for-ceuta-melilla
p7257
aV\U0001f1ea\U0001f1e6
p7258
aa(lp7259
Vflag-for-ecuador
p7260
aV\U0001f1ea\U0001f1e8
p7261
aa(lp7262
Vflag-for-estonia
p7263
aV\U0001f1ea\U0001f1ea
p7264
aa(lp7265
Vflag-for-egypt
p7266
aV\U0001f1ea\U0001f1ec
p7267
aa(lp7268
Vflag-for-western-sahara
p7269
aV\U0001f1ea\U0001f1ed
p7270
aa(lp7271
Vflag-for-eritrea
p7272
aV\U0001f1ea\U0001f1f7
p7273
aa(lp7274
Vflag-for-spain
p7275
aV\U0001f1ea\U0001f1f8
p7276
aa(lp7277
Vflag-for-ethiopia
p7278
aV\U0001f1ea\U0001f1f9
p7279
aa(lp7280
Vflag-for-european-union
p7281
aV\U0001f1ea\U0001f1fa
p7282
aa(lp7283
Vflag-for-finland
p7284
aV\U0001f1eb\U0001f1ee
p7285
aa(lp7286
Vflag-for-fiji
p7287
aV\U0001f1eb\U0001f1ef
p7288
aa(lp7289
Vflag-for-falkland-islands
p7290
aV\U0001f1eb\U0001f1f0
p7291
aa(lp7292
Vflag-for-micronesia
p7293
aV\U0001f1eb\U0001f1f2
p7294
aa(lp7295
Vflag-for-faroe-islands
p7296
aV\U0001f1eb\U0001f1f4
p7297
aa(lp7298
Vflag-for-france
p7299
aV\U0001f1eb\U0001f1f7
p7300
aa(lp7301
Vflag-for-gabon
p7302
aV\U0001f1ec\U0001f1e6
p7303
aa(lp7304
Vflag-for-united-kingdom
p7305
aV\U0001f1ec\U0001f1e7
p7306
aa(lp7307
Vflag-for-grenada
p7308
aV\U0001f1ec\U0001f1e9
p7309
aa(lp7310
Vflag-for-georgia
p7311
aV\U0001f1ec\U0001f1ea
p7312
aa(lp7313
Vflag-for-french-guiana
p7314
aV\U0001f1ec\U0001f1eb
p7315
aa(lp7316
Vflag-for-guernsey
p7317
aV\U0001f1ec\U0001f1ec
p7318
aa(lp7319
Vflag-for-ghana
p7320
aV\U0001f1ec\U0001f1ed
p7321
aa(lp7322
Vflag-for-gibraltar
p7323
aV\U0001f1ec\U0001f1ee
p7324
aa(lp7325
Vflag-for-greenland
p7326
aV\U0001f1ec\U0001f1f1
p7327
aa(lp7328
Vflag-for-gambia
p7329
aV\U0001f1ec\U0001f1f2
p7330
aa(lp7331
Vflag-for-guinea
p7332
aV\U0001f1ec\U0001f1f3
p7333
aa(lp7334
Vflag-for-guadeloupe
p7335
aV\U0001f1ec\U0001f1f5
p7336
aa(lp7337
Vflag-for-equatorial-guinea
p7338
aV\U0001f1ec\U0001f1f6
p7339
aa(lp7340
Vflag-for-greece
p7341
aV\U0001f1ec\U0001f1f7
p7342
aa(lp7343
Vflag-for-south-georgia-south-sandwich-islands
p7344
aV\U0001f1ec\U0001f1f8
p7345
aa(lp7346
Vflag-for-guatemala
p7347
aV\U0001f1ec\U0001f1f9
p7348
aa(lp7349
Vflag-for-guam
p7350
aV\U0001f1ec\U0001f1fa
p7351
aa(lp7352
Vflag-for-guinea-bissau
p7353
aV\U0001f1ec\U0001f1fc
p7354
aa(lp7355
Vflag-for-guyana
p7356
aV\U0001f1ec\U0001f1fe
p7357
aa(lp7358
Vflag-for-hong-kong
p7359
aV\U0001f1ed\U0001f1f0
p7360
aa(lp7361
Vflag-for-heard-mcdonald-islands
p7362
aV\U0001f1ed\U0001f1f2
p7363
aa(lp7364
Vflag-for-honduras
p7365
aV\U0001f1ed\U0001f1f3
p7366
aa(lp7367
Vflag-for-croatia
p7368
aV\U0001f1ed\U0001f1f7
p7369
aa(lp7370
Vflag-for-haiti
p7371
aV\U0001f1ed\U0001f1f9
p7372
aa(lp7373
Vflag-for-hungary
p7374
aV\U0001f1ed\U0001f1fa
p7375
aa(lp7376
Vflag-for-canary-islands
p7377
aV\U0001f1ee\U0001f1e8
p7378
aa(lp7379
Vflag-for-indonesia
p7380
aV\U0001f1ee\U0001f1e9
p7381
aa(lp7382
Vflag-for-ireland
p7383
aV\U0001f1ee\U0001f1ea
p7384
aa(lp7385
Vflag-for-israel
p7386
aV\U0001f1ee\U0001f1f1
p7387
aa(lp7388
Vflag-for-isle-of-man
p7389
aV\U0001f1ee\U0001f1f2
p7390
aa(lp7391
Vflag-for-india
p7392
aV\U0001f1ee\U0001f1f3
p7393
aa(lp7394
Vflag-for-british-indian-ocean-territory
p7395
aV\U0001f1ee\U0001f1f4
p7396
aa(lp7397
Vflag-for-iraq
p7398
aV\U0001f1ee\U0001f1f6
p7399
aa(lp7400
Vflag-for-iran
p7401
aV\U0001f1ee\U0001f1f7
p7402
aa(lp7403
Vflag-for-iceland
p7404
aV\U0001f1ee\U0001f1f8
p7405
aa(lp7406
Vflag-for-italy
p7407
aV\U0001f1ee\U0001f1f9
p7408
aa(lp7409
Vflag-for-jersey
p7410
aV\U0001f1ef\U0001f1ea
p7411
aa(lp7412
Vflag-for-jamaica
p7413
aV\U0001f1ef\U0001f1f2
p7414
aa(lp7415
Vflag-for-jordan
p7416
aV\U0001f1ef\U0001f1f4
p7417
aa(lp7418
Vflag-for-japan
p7419
aV\U0001f1ef\U0001f1f5
p7420
aa(lp7421
Vflag-for-kenya
p7422
aV\U0001f1f0\U0001f1ea
p7423
aa(lp7424
Vflag-for-kyrgyzstan
p7425
aV\U0001f1f0\U0001f1ec
p7426
aa(lp7427
Vflag-for-cambodia
p7428
aV\U0001f1f0\U0001f1ed
p7429
aa(lp7430
Vflag-for-kiribati
p7431
aV\U0001f1f0\U0001f1ee
p7432
aa(lp7433
Vflag-for-comoros
p7434
aV\U0001f1f0\U0001f1f2
p7435
aa(lp7436
Vflag-for-st-kitts-nevis
p7437
aV\U0001f1f0\U0001f1f3
p7438
aa(lp7439
Vflag-for-north-korea
p7440
aV\U0001f1f0\U0001f1f5
p7441
aa(lp7442
Vflag-for-south-korea
p7443
aV\U0001f1f0\U0001f1f7
p7444
aa(lp7445
Vflag-for-kuwait
p7446
aV\U0001f1f0\U0001f1fc
p7447
aa(lp7448
Vflag-for-cayman-islands
p7449
aV\U0001f1f0\U0001f1fe
p7450
aa(lp7451
Vflag-for-kazakhstan
p7452
aV\U0001f1f0\U0001f1ff
p7453
aa(lp7454
Vflag-for-laos
p7455
aV\U0001f1f1\U0001f1e6
p7456
aa(lp7457
Vflag-for-lebanon
p7458
aV\U0001f1f1\U0001f1e7
p7459
aa(lp7460
Vflag-for-st-lucia
p7461
aV\U0001f1f1\U0001f1e8
p7462
aa(lp7463
Vflag-for-liechtenstein
p7464
aV\U0001f1f1\U0001f1ee
p7465
aa(lp7466
Vflag-for-sri-lanka
p7467
aV\U0001f1f1\U0001f1f0
p7468
aa(lp7469
Vflag-for-liberia
p7470
aV\U0001f1f1\U0001f1f7
p7471
aa(lp7472
Vflag-for-lesotho
p7473
aV\U0001f1f1\U0001f1f8
p7474
aa(lp7475
Vflag-for-lithuania
p7476
aV\U0001f1f1\U0001f1f9
p7477
aa(lp7478
Vflag-for-luxembourg
p7479
aV\U0001f1f1\U0001f1fa
p7480
aa(lp7481
Vflag-for-latvia
p7482
aV\U0001f1f1\U0001f1fb
p7483
aa(lp7484
Vflag-for-libya
p7485
aV\U0001f1f1\U0001f1fe
p7486
aa(lp7487
Vflag-for-morocco
p7488
aV\U0001f1f2\U0001f1e6
p7489
aa(lp7490
Vflag-for-monaco
p7491
aV\U0001f1f2\U0001f1e8
p7492
aa(lp7493
Vflag-for-moldova
p7494
aV\U0001f1f2\U0001f1e9
p7495
aa(lp7496
Vflag-for-montenegro
p7497
aV\U0001f1f2\U0001f1ea
p7498
aa(lp7499
Vflag-for-st-martin
p7500
aV\U0001f1f2\U0001f1eb
p7501
aa(lp7502
Vflag-for-madagascar
p7503
aV\U0001f1f2\U0001f1ec
p7504
aa(lp7505
Vflag-for-marshall-islands
p7506
aV\U0001f1f2\U0001f1ed
p7507
aa(lp7508
Vflag-for-macedonia
p7509
aV\U0001f1f2\U0001f1f0
p7510
aa(lp7511
Vflag-for-mali
p7512
aV\U0001f1f2\U0001f1f1
p7513
aa(lp7514
Vflag-for-myanmar
p7515
aV\U0001f1f2\U0001f1f2
p7516
aa(lp7517
Vflag-for-mongolia
p7518
aV\U0001f1f2\U0001f1f3
p7519
aa(lp7520
Vflag-for-macau
p7521
aV\U0001f1f2\U0001f1f4
p7522
aa(lp7523
Vflag-for-northern-mariana-islands
p7524
aV\U0001f1f2\U0001f1f5
p7525
aa(lp7526
Vflag-for-martinique
p7527
aV\U0001f1f2\U0001f1f6
p7528
aa(lp7529
Vflag-for-mauritania
p7530
aV\U0001f1f2\U0001f1f7
p7531
aa(lp7532
Vflag-for-montserrat
p7533
aV\U0001f1f2\U0001f1f8
p7534
aa(lp7535
Vflag-for-malta
p7536
aV\U0001f1f2\U0001f1f9
p7537
aa(lp7538
Vflag-for-mauritius
p7539
aV\U0001f1f2\U0001f1fa
p7540
aa(lp7541
Vflag-for-maldives
p7542
aV\U0001f1f2\U0001f1fb
p7543
aa(lp7544
Vflag-for-malawi
p7545
aV\U0001f1f2\U0001f1fc
p7546
aa(lp7547
Vflag-for-mexico
p7548
aV\U0001f1f2\U0001f1fd
p7549
aa(lp7550
Vflag-for-malaysia
p7551
aV\U0001f1f2\U0001f1fe
p7552
aa(lp7553
Vflag-for-mozambique
p7554
aV\U0001f1f2\U0001f1ff
p7555
aa(lp7556
Vflag-for-namibia
p7557
aV\U0001f1f3\U0001f1e6
p7558
aa(lp7559
Vflag-for-new-caledonia
p7560
aV\U0001f1f3\U0001f1e8
p7561
aa(lp7562
Vflag-for-niger
p7563
aV\U0001f1f3\U0001f1ea
p7564
aa(lp7565
Vflag-for-norfolk-island
p7566
aV\U0001f1f3\U0001f1eb
p7567
aa(lp7568
Vflag-for-nigeria
p7569
aV\U0001f1f3\U0001f1ec
p7570
aa(lp7571
Vflag-for-nicaragua
p7572
aV\U0001f1f3\U0001f1ee
p7573
aa(lp7574
Vflag-for-netherlands
p7575
aV\U0001f1f3\U0001f1f1
p7576
aa(lp7577
Vflag-for-norway
p7578
aV\U0001f1f3\U0001f1f4
p7579
aa(lp7580
Vflag-for-nepal
p7581
aV\U0001f1f3\U0001f1f5
p7582
aa(lp7583
Vflag-for-nauru
p7584
aV\U0001f1f3\U0001f1f7
p7585
aa(lp7586
Vflag-for-niue
p7587
aV\U0001f1f3\U0001f1fa
p7588
aa(lp7589
Vflag-for-new-zealand
p7590
aV\U0001f1f3\U0001f1ff
p7591
aa(lp7592
Vflag-for-oman
p7593
aV\U0001f1f4\U0001f1f2
p7594
aa(lp7595
Vflag-for-panama
p7596
aV\U0001f1f5\U0001f1e6
p7597
aa(lp7598
Vflag-for-peru
p7599
aV\U0001f1f5\U0001f1ea
p7600
aa(lp7601
Vflag-for-french-polynesia
p7602
aV\U0001f1f5\U0001f1eb
p7603
aa(lp7604
Vflag-for-papua-new-guinea
p7605
aV\U0001f1f5\U0001f1ec
p7606
aa(lp7607
Vflag-for-philippines
p7608
aV\U0001f1f5\U0001f1ed
p7609
aa(lp7610
Vflag-for-pakistan
p7611
aV\U0001f1f5\U0001f1f0
p7612
aa(lp7613
Vflag-for-poland
p7614
aV\U0001f1f5\U0001f1f1
p7615
aa(lp7616
Vflag-for-st-pierre-miquelon
p7617
aV\U0001f1f5\U0001f1f2
p7618
aa(lp7619
Vflag-for-pitcairn-islands
p7620
aV\U0001f1f5\U0001f1f3
p7621
aa(lp7622
Vflag-for-puerto-rico
p7623
aV\U0001f1f5\U0001f1f7
p7624
aa(lp7625
Vflag-for-palestinian-territories
p7626
aV\U0001f1f5\U0001f1f8
p7627
aa(lp7628
Vflag-for-portugal
p7629
aV\U0001f1f5\U0001f1f9
p7630
aa(lp7631
Vflag-for-palau
p7632
aV\U0001f1f5\U0001f1fc
p7633
aa(lp7634
Vflag-for-paraguay
p7635
aV\U0001f1f5\U0001f1fe
p7636
aa(lp7637
Vflag-for-qatar
p7638
aV\U0001f1f6\U0001f1e6
p7639
aa(lp7640
Vflag-for-reunion
p7641
aV\U0001f1f7\U0001f1ea
p7642
aa(lp7643
Vflag-for-romania
p7644
aV\U0001f1f7\U0001f1f4
p7645
aa(lp7646
Vflag-for-serbia
p7647
aV\U0001f1f7\U0001f1f8
p7648
aa(lp7649
Vflag-for-russia
p7650
aV\U0001f1f7\U0001f1fa
p7651
aa(lp7652
Vflag-for-rwanda
p7653
aV\U0001f1f7\U0001f1fc
p7654
aa(lp7655
Vflag-for-saudi-arabia
p7656
aV\U0001f1f8\U0001f1e6
p7657
aa(lp7658
Vflag-for-solomon-islands
p7659
aV\U0001f1f8\U0001f1e7
p7660
aa(lp7661
Vflag-for-seychelles
p7662
aV\U0001f1f8\U0001f1e8
p7663
aa(lp7664
Vflag-for-sudan
p7665
aV\U0001f1f8\U0001f1e9
p7666
aa(lp7667
Vflag-for-sweden
p7668
aV\U0001f1f8\U0001f1ea
p7669
aa(lp7670
Vflag-for-singapore
p7671
aV\U0001f1f8\U0001f1ec
p7672
aa(lp7673
Vflag-for-st-helena
p7674
aV\U0001f1f8\U0001f1ed
p7675
aa(lp7676
Vflag-for-slovenia
p7677
aV\U0001f1f8\U0001f1ee
p7678
aa(lp7679
Vflag-for-svalbard-jan-mayen
p7680
aV\U0001f1f8\U0001f1ef
p7681
aa(lp7682
Vflag-for-slovakia
p7683
aV\U0001f1f8\U0001f1f0
p7684
aa(lp7685
Vflag-for-sierra-leone
p7686
aV\U0001f1f8\U0001f1f1
p7687
aa(lp7688
Vflag-for-san-marino
p7689
aV\U0001f1f8\U0001f1f2
p7690
aa(lp7691
Vflag-for-senegal
p7692
aV\U0001f1f8\U0001f1f3
p7693
aa(lp7694
Vflag-for-somalia
p7695
aV\U0001f1f8\U0001f1f4
p7696
aa(lp7697
Vflag-for-suriname
p7698
aV\U0001f1f8\U0001f1f7
p7699
aa(lp7700
Vflag-for-south-sudan
p7701
aV\U0001f1f8\U0001f1f8
p7702
aa(lp7703
Vflag-for-sao-tome-principe
p7704
aV\U0001f1f8\U0001f1f9
p7705
aa(lp7706
Vflag-for-el-salvador
p7707
aV\U0001f1f8\U0001f1fb
p7708
aa(lp7709
Vflag-for-sint-maarten
p7710
aV\U0001f1f8\U0001f1fd
p7711
aa(lp7712
Vflag-for-syria
p7713
aV\U0001f1f8\U0001f1fe
p7714
aa(lp7715
Vflag-for-swaziland
p7716
aV\U0001f1f8\U0001f1ff
p7717
aa(lp7718
Vflag-for-tristan-da-cunha
p7719
aV\U0001f1f9\U0001f1e6
p7720
aa(lp7721
Vflag-for-turks-caicos-islands
p7722
aV\U0001f1f9\U0001f1e8
p7723
aa(lp7724
Vflag-for-chad
p7725
aV\U0001f1f9\U0001f1e9
p7726
aa(lp7727
Vflag-for-french-southern-territories
p7728
aV\U0001f1f9\U0001f1eb
p7729
aa(lp7730
Vflag-for-togo
p7731
aV\U0001f1f9\U0001f1ec
p7732
aa(lp7733
Vflag-for-thailand
p7734
aV\U0001f1f9\U0001f1ed
p7735
aa(lp7736
Vflag-for-tajikistan
p7737
aV\U0001f1f9\U0001f1ef
p7738
aa(lp7739
Vflag-for-tokelau
p7740
aV\U0001f1f9\U0001f1f0
p7741
aa(lp7742
Vflag-for-timor-leste
p7743
aV\U0001f1f9\U0001f1f1
p7744
aa(lp7745
Vflag-for-turkmenistan
p7746
aV\U0001f1f9\U0001f1f2
p7747
aa(lp7748
Vflag-for-tunisia
p7749
aV\U0001f1f9\U0001f1f3
p7750
aa(lp7751
Vflag-for-tonga
p7752
aV\U0001f1f9\U0001f1f4
p7753
aa(lp7754
Vflag-for-turkey
p7755
aV\U0001f1f9\U0001f1f7
p7756
aa(lp7757
Vflag-for-trinidad-tobago
p7758
aV\U0001f1f9\U0001f1f9
p7759
aa(lp7760
Vflag-for-tuvalu
p7761
aV\U0001f1f9\U0001f1fb
p7762
aa(lp7763
Vflag-for-taiwan
p7764
aV\U0001f1f9\U0001f1fc
p7765
aa(lp7766
Vflag-for-tanzania
p7767
aV\U0001f1f9\U0001f1ff
p7768
aa(lp7769
Vflag-for-ukraine
p7770
aV\U0001f1fa\U0001f1e6
p7771
aa(lp7772
Vflag-for-uganda
p7773
aV\U0001f1fa\U0001f1ec
p7774
aa(lp7775
Vflag-for-us-outlying-islands
p7776
aV\U0001f1fa\U0001f1f2
p7777
aa(lp7778
Vflag-for-united-states
p7779
aV\U0001f1fa\U0001f1f8
p7780
aa(lp7781
Vflag-for-uruguay
p7782
aV\U0001f1fa\U0001f1fe
p7783
aa(lp7784
Vflag-for-uzbekistan
p7785
aV\U0001f1fa\U0001f1ff
p7786
aa(lp7787
Vflag-for-vatican-city
p7788
aV\U0001f1fb\U0001f1e6
p7789
aa(lp7790
Vflag-for-st-vincent-grenadines
p7791
aV\U0001f1fb\U0001f1e8
p7792
aa(lp7793
Vflag-for-venezuela
p7794
aV\U0001f1fb\U0001f1ea
p7795
aa(lp7796
Vflag-for-british-virgin-islands
p7797
aV\U0001f1fb\U0001f1ec
p7798
aa(lp7799
Vflag-for-us-virgin-islands
p7800
aV\U0001f1fb\U0001f1ee
p7801
aa(lp7802
Vflag-for-vietnam
p7803
aV\U0001f1fb\U0001f1f3
p7804
aa(lp7805
Vflag-for-vanuatu
p7806
aV\U0001f1fb\U0001f1fa
p7807
aa(lp7808
Vflag-for-wallis-futuna
p7809
aV\U0001f1fc\U0001f1eb
p7810
aa(lp7811
Vflag-for-samoa
p7812
aV\U0001f1fc\U0001f1f8
p7813
aa(lp7814
Vflag-for-kosovo
p7815
aV\U0001f1fd\U0001f1f0
p7816
aa(lp7817
Vflag-for-yemen
p7818
aV\U0001f1fe\U0001f1ea
p7819
aa(lp7820
Vflag-for-mayotte
p7821
aV\U0001f1fe\U0001f1f9
p7822
aa(lp7823
Vflag-for-south-africa
p7824
aV\U0001f1ff\U0001f1e6
p7825
aa(lp7826
Vflag-for-zambia
p7827
aV\U0001f1ff\U0001f1f2
p7828
aa(lp7829
Vflag-for-zimbabwe
p7830
aV\U0001f1ff\U0001f1fc
p7831
aa(lp7832
Vflag-for-england
p7833
aV\U0001f3f4\U000e0067\U000e0062\U000e0065\U000e006e\U000e0067\U000e007f
p7834
aa(lp7835
Vflag-for-scotland
p7836
aV\U0001f3f4\U000e0067\U000e0062\U000e0073\U000e0063\U000e0074\U000e007f
p7837
aa(lp7838
Vflag-for-wales
p7839
aV\U0001f3f4\U000e0067\U000e0062\U000e0077\U000e006c\U000e0073\U000e007f
p7840
aatp7841
Rp7842
.