ccollections
OrderedDict
p0
((lp1
(lp2
Vgrinning-face
p3
aV\U0001f600
p4
aa(lp5
Vgrinning-face-with-smiling-eyes
p6
aV\U0001f601
p7
aa(lp8
Vface-with-tears-of-joy
p9
aV\U0001f602
p10
aa(lp11
Vrolling-on-the-floor-laughing
p12
aV\U0001f923
p13
aa(lp14
Vsmiling-face-with-open-mouth
p15
aV\U0001f603
p16
aa(lp17
Vsmiling-face-with-open-mouth-and-smiling-eyes
p18
aV\U0001f604
p19
aa(lp20
Vsmiling-face-with-open-mouth-and-cold-sweat
p21
aV\U0001f605
p22
aa(lp23
Vsmiling-face-with-open-mouth-and-tightly-closed-eyes
p24
aV\U0001f606
p25
aa(lp26
Vwinking-face
p27
aV\U0001f609
p28
aa(lp29
Vsmiling-face-with-smiling-eyes
p30
aV\U0001f60a
p31
aa(lp32
Vface-savouring-delicious-food
p33
aV\U0001f60b
p34
aa(lp35
Vsmiling-face-with-sunglasses
p36
aV\U0001f60e
p37
aa(lp38
Vsmiling-face-with-heart-shaped-eyes
p39
aV\U0001f60d
p40
aa(lp41
Vface-throwing-a-kiss
p42
aV\U0001f618
p43
aa(lp44
Vkissing-face
p45
aV\U0001f617
p46
aa(lp47
Vkissing-face-with-smiling-eyes
p48
aV\U0001f619
p49
aa(lp50
Vkissing-face-with-closed-eyes
p51
aV\U0001f61a
p52
aa(lp53
Vwhite-smiling-face
p54
aV\u263a
p55
aa(lp56
Vslightly-smiling-face
p57
aV\U0001f642
p58
aa(lp59
Vhugging-face
p60
aV\U0001f917
p61
aa(lp62
Vthinking-face
p63
aV\U0001f914
p64
aa(lp65
Vneutral-face
p66
aV\U0001f610
p67
aa(lp68
Vexpressionless-face
p69
aV\U0001f611
p70
aa(lp71
Vface-without-mouth
p72
aV\U0001f636
p73
aa(lp74
Vface-with-rolling-eyes
p75
aV\U0001f644
p76
aa(lp77
Vsmirking-face
p78
aV\U0001f60f
p79
aa(lp80
Vpersevering-face
p81
aV\U0001f623
p82
aa(lp83
Vdisappointed-but-relieved-face
p84
aV\U0001f625
p85
aa(lp86
Vface-with-open-mouth
p87
aV\U0001f62e
p88
aa(lp89
Vzipper-mouth-face
p90
aV\U0001f910
p91
aa(lp92
Vhushed-face
p93
aV\U0001f62f
p94
aa(lp95
Vsleepy-face
p96
aV\U0001f62a
p97
aa(lp98
Vtired-face
p99
aV\U0001f62b
p100
aa(lp101
Vsleeping-face
p102
aV\U0001f634
p103
aa(lp104
Vrelieved-face
p105
aV\U0001f60c
p106
aa(lp107
Vface-with-stuck-out-tongue
p108
aV\U0001f61b
p109
aa(lp110
Vface-with-stuck-out-tongue-and-winking-eye
p111
aV\U0001f61c
p112
aa(lp113
Vface-with-stuck-out-tongue-and-tightly-closed-eyes
p114
aV\U0001f61d
p115
aa(lp116
Vdrooling-face
p117
aV\U0001f924
p118
aa(lp119
Vunamused-face
p120
aV\U0001f612
p121
aa(lp122
Vface-with-cold-sweat
p123
aV\U0001f613
p124
aa(lp125
Vpensive-face
p126
aV\U0001f614
p127
aa(lp128
Vconfused-face
p129
aV\U0001f615
p130
aa(lp131
Vupside-down-face
p132
aV\U0001f643
p133
aa(lp134
Vmoney-mouth-face
p135
aV\U0001f911
p136
aa(lp137
Vastonished-face
p138
aV\U0001f632
p139
aa(lp140
Vwhite-frowning-face
p141
aV\u2639
p142
aa(lp143
Vslightly-frowning-face
p144
aV\U0001f641
p145
aa(lp146
Vconfounded-face
p147
aV\U0001f616
p148
aa(lp149
Vdisappointed-face
p150
aV\U0001f61e
p151
aa(lp152
Vworried-face
p153
aV\U0001f61f
p154
aa(lp155
Vface-with-look-of-triumph
p156
aV\U0001f624
p157
aa(lp158
Vcrying-face
p159
aV\U0001f622
p160
aa(lp161
Vloudly-crying-face
p162
aV\U0001f62d
p163
aa(lp164
Vfrowning-face-with-open-mouth
p165
aV\U0001f626
p166
aa(lp167
Vanguished-face
p168
aV\U0001f627
p169
aa(lp170
Vfearful-face
p171
aV\U0001f628
p172
aa(lp173
Vweary-face
p174
aV\U0001f629
p175
aa(lp176
Vgrimacing-face
p177
aV\U0001f62c
p178
aa(lp179
Vface-with-open-mouth-and-cold-sweat
p180
aV\U0001f630
p181
aa(lp182
Vface-screaming-in-fear
p183
aV\U0001f631
p184
aa(lp185
Vflushed-face
p186
aV\U0001f633
p187
aa(lp188
Vdizzy-face
p189
aV\U0001f635
p190
aa(lp191
Vpouting-face
p192
aV\U0001f621
p193
aa(lp194
Vangry-face
p195
aV\U0001f620
p196
aa(lp197
Vface-with-medical-mask
p198
aV\U0001f637
p199
aa(lp200
Vface-with-thermometer
p201
aV\U0001f912
p202
aa(lp203
Vface-with-head-bandage
p204
aV\U0001f915
p205
aa(lp206
Vnauseated-face
p207
aV\U0001f922
p208
aa(lp209
Vsneezing-face
p210
aV\U0001f927
p211
aa(lp212
Vsmiling-face-with-halo
p213
aV\U0001f607
p214
aa(lp215
Vface-with-cowboy-hat
p216
aV\U0001f920
p217
aa(lp218
Vclown-face
p219
aV\U0001f921
p220
aa(lp221
Vlying-face
p222
aV\U0001f925
p223
aa(lp224
Vnerd-face
p225
aV\U0001f913
p226
aa(lp227
Vsmiling-face-with-horns
p228
aV\U0001f608
p229
aa(lp230
Vimp
p231
aV\U0001f47f
p232
aa(lp233
Vjapanese-ogre
p234
aV\U0001f479
p235
aa(lp236
Vjapanese-goblin
p237
aV\U0001f47a
p238
aa(lp239
Vskull
p240
aV\U0001f480
p241
aa(lp242
Vskull-and-crossbones
p243
aV\u2620
p244
aa(lp245
Vghost
p246
aV\U0001f47b
p247
aa(lp248
Vextraterrestrial-alien
p249
aV\U0001f47d
p250
aa(lp251
Valien-monster
p252
aV\U0001f47e
p253
aa(lp254
Vrobot-face
p255
aV\U0001f916
p256
aa(lp257
Vpile-of-poo
p258
aV\U0001f4a9
p259
aa(lp260
Vsmiling-cat-face-with-open-mouth
p261
aV\U0001f63a
p262
aa(lp263
Vgrinning-cat-face-with-smiling-eyes
p264
aV\U0001f638
p265
aa(lp266
Vcat-face-with-tears-of-joy
p267
aV\U0001f639
p268
aa(lp269
Vsmiling-cat-face-with-heart-shaped-eyes
p270
aV\U0001f63b
p271
aa(lp272
Vcat-face-with-wry-smile
p273
aV\U0001f63c
p274
aa(lp275
Vkissing-cat-face-with-closed-eyes
p276
aV\U0001f63d
p277
aa(lp278
Vweary-cat-face
p279
aV\U0001f640
p280
aa(lp281
Vcrying-cat-face
p282
aV\U0001f63f
p283
aa(lp284
Vpouting-cat-face
p285
aV\U0001f63e
p286
aa(lp287
Vsee-no-evil-monkey
p288
aV\U0001f648
p289
aa(lp290
Vhear-no-evil-monkey
p291
aV\U0001f649
p292
aa(lp293
Vspeak-no-evil-monkey
p294
aV\U0001f64a
p295
aa(lp296
Vbaby
p297
aV\U0001f476
p298
aa(lp299
Vbaby-type-1-2
p300
aV\U0001f476\U0001f3fb
p301
aa(lp302
Vbaby-type-3
p303
aV\U0001f476\U0001f3fc
p304
aa(lp305
Vbaby-type-4
p306
aV\U0001f476\U0001f3fd
p307
aa(lp308
Vbaby-type-5
p309
aV\U0001f476\U0001f3fe
p310
aa(lp311
Vbaby-type-6
p312
aV\U0001f476\U0001f3ff
p313
aa(lp314
Vboy
p315
aV\U0001f466
p316
aa(lp317
Vboy-type-1-2
p318
aV\U0001f466\U0001f3fb
p319
aa(lp320
Vboy-type-3
p321
aV\U0001f466\U0001f3fc
p322
aa(lp323
Vboy-type-4
p324
aV\U0001f466\U0001f3fd
p325
aa(lp326
Vboy-type-5
p327
aV\U0001f466\U0001f3fe
p328
aa(lp329
Vboy-type-6
p330
aV\U0001f466\U0001f3ff
p331
aa(lp332
Vgirl
p333
aV\U0001f467
p334
aa(lp335
Vgirl-type-1-2
p336
aV\U0001f467\U0001f3fb
p337
aa(lp338
Vgirl-type-3
p339
aV\U0001f467\U0001f3fc
p340
aa(lp341
Vgirl-type-4
p342
aV\U0001f467\U0001f3fd
p343
aa(lp344
Vgirl-type-5
p345
aV\U0001f467\U0001f3fe
p346
aa(lp347
Vgirl-type-6
p348
aV\U0001f467\U0001f3ff
p349
aa(lp350
Vman
p351
aV\U0001f468
p352
aa(lp353
Vman-type-1-2
p354
aV\U0001f468\U0001f3fb
p355
aa(lp356
Vman-type-3
p357
aV\U0001f468\U0001f3fc
p358
aa(lp359
Vman-type-4
p360
aV\U0001f468\U0001f3fd
p361
aa(lp362
Vman-type-5
p363
aV\U0001f468\U0001f3fe
p364
aa(lp365
Vman-type-6
p366
aV\U0001f468\U0001f3ff
p367
aa(lp368
Vwoman
p369
aV\U0001f469
p370
aa(lp371
Vwoman-type-1-2
p372
aV\U0001f469\U0001f3fb
p373
aa(lp374
Vwoman-type-3
p375
aV\U0001f469\U0001f3fc
p376
aa(lp377
Vwoman-type-4
p378
aV\U0001f469\U0001f3fd
p379
aa(lp380
Vwoman-type-5
p381
aV\U0001f469\U0001f3fe
p382
aa(lp383
Vwoman-type-6
p384
aV\U0001f469\U0001f3ff
p385
aa(lp386
Volder-man
p387
aV\U0001f474
p388
aa(lp389
Volder-man-type-1-2
p390
aV\U0001f474\U0001f3fb
p391
aa(lp392
Volder-man-type-3
p393
aV\U0001f474\U0001f3fc
p394
aa(lp395
Volder-man-type-4
p396
aV\U0001f474\U0001f3fd
p397
aa(lp398
Volder-man-type-5
p399
aV\U0001f474\U0001f3fe
p400
aa(lp401
Volder-man-type-6
p402
aV\U0001f474\U0001f3ff
p403
aa(lp404
Volder-woman
p405
aV\U0001f475
p406
aa(lp407
Volder-woman-type-1-2
p408
aV\U0001f475\U0001f3fb
p409
aa(lp410
Volder-woman-type-3
p411
aV\U0001f475\U0001f3fc
p412
aa(lp413
Volder-woman-type-4
p414
aV\U0001f475\U0001f3fd
p415
aa(lp416
Volder-woman-type-5
p417
aV\U0001f475\U0001f3fe
p418
aa(lp419
Volder-woman-type-6
p420
aV\U0001f475\U0001f3ff
p421
aa(lp422
Vmale-health-worker
p423
aV\U0001f468\u200d\u2695\ufe0f
p424
aa(lp425
Vmale-health-worker-type-1-2
p426
aV\U0001f468\U0001f3fb\u200d\u2695\ufe0f
p427
aa(lp428
Vmale-health-worker-type-3
p429
aV\U0001f468\U0001f3fc\u200d\u2695\ufe0f
p430
aa(lp431
Vmale-health-worker-type-4
p432
aV\U0001f468\U0001f3fd\u200d\u2695\ufe0f
p433
aa(lp434
Vmale-health-worker-type-5
p435
aV\U0001f468\U0001f3fe\u200d\u2695\ufe0f
p436
aa(lp437
Vmale-health-worker-type-6
p438
aV\U0001f468\U0001f3ff\u200d\u2695\ufe0f
p439
aa(lp440
Vfemale-health-worker
p441
aV\U0001f469\u200d\u2695\ufe0f
p442
aa(lp443
Vfemale-health-worker-type-1-2
p444
aV\U0001f469\U0001f3fb\u200d\u2695\ufe0f
p445
aa(lp446
Vfemale-health-worker-type-3
p447
aV\U0001f469\U0001f3fc\u200d\u2695\ufe0f
p448
aa(lp449
Vfemale-health-worker-type-4
p450
aV\U0001f469\U0001f3fd\u200d\u2695\ufe0f
p451
aa(lp452
Vfemale-health-worker-type-5
p453
aV\U0001f469\U0001f3fe\u200d\u2695\ufe0f
p454
aa(lp455
Vfemale-health-worker-type-6
p456
aV\U0001f469\U0001f3ff\u200d\u2695\ufe0f
p457
aa(lp458
Vmale-student
p459
aV\U0001f468\u200d\U0001f393
p460
aa(lp461
Vmale-student-type-1-2
p462
aV\U0001f468\U0001f3fb\u200d\U0001f393
p463
aa(lp464
Vmale-student-type-3
p465
aV\U0001f468\U0001f3fc\u200d\U0001f393
p466
aa(lp467
Vmale-student-type-4
p468
aV\U0001f468\U0001f3fd\u200d\U0001f393
p469
aa(lp470
Vmale-student-type-5
p471
aV\U0001f468\U0001f3fe\u200d\U0001f393
p472
aa(lp473
Vmale-student-type-6
p474
aV\U0001f468\U0001f3ff\u200d\U0001f393
p475
aa(lp476
Vfemale-student
p477
aV\U0001f469\u200d\U0001f393
p478
aa(lp479
Vfemale-student-type-1-2
p480
aV\U0001f469\U0001f3fb\u200d\U0001f393
p481
aa(lp482
Vfemale-student-type-3
p483
aV\U0001f469\U0001f3fc\u200d\U0001f393
p484
aa(lp485
Vfemale-student-type-4
p486
aV\U0001f469\U0001f3fd\u200d\U0001f393
p487
aa(lp488
Vfemale-student-type-5
p489
aV\U0001f469\U0001f3fe\u200d\U0001f393
p490
aa(lp491
Vfemale-student-type-6
p492
aV\U0001f469\U0001f3ff\u200d\U0001f393
p493
aa(lp494
Vmale-teacher
p495
aV\U0001f468\u200d\U0001f3eb
p496
aa(lp497
Vmale-teacher-type-1-2
p498
aV\U0001f468\U0001f3fb\u200d\U0001f3eb
p499
aa(lp500
Vmale-teacher-type-3
p501
aV\U0001f468\U0001f3fc\u200d\U0001f3eb
p502
aa(lp503
Vmale-teacher-type-4
p504
aV\U0001f468\U0001f3fd\u200d\U0001f3eb
p505
aa(lp506
Vmale-teacher-type-5
p507
aV\U0001f468\U0001f3fe\u200d\U0001f3eb
p508
aa(lp509
Vmale-teacher-type-6
p510
aV\U0001f468\U0001f3ff\u200d\U0001f3eb
p511
aa(lp512
Vfemale-teacher
p513
aV\U0001f469\u200d\U0001f3eb
p514
aa(lp515
Vfemale-teacher-type-1-2
p516
aV\U0001f469\U0001f3fb\u200d\U0001f3eb
p517
aa(lp518
Vfemale-teacher-type-3
p519
aV\U0001f469\U0001f3fc\u200d\U0001f3eb
p520
aa(lp521
Vfemale-teacher-type-4
p522
aV\U0001f469\U0001f3fd\u200d\U0001f3eb
p523
aa(lp524
Vfemale-teacher-type-5
p525
aV\U0001f469\U0001f3fe\u200d\U0001f3eb
p526
aa(lp527
Vfemale-teacher-type-6
p528
aV\U0001f469\U0001f3ff\u200d\U0001f3eb
p529
aa(lp530
Vmale-judge
p531
aV\U0001f468\u200d\u2696\ufe0f
p532
aa(lp533
Vmale-judge-type-1-2
p534
aV\U0001f468\U0001f3fb\u200d\u2696\ufe0f
p535
aa(lp536
Vmale-judge-type-3
p537
aV\U0001f468\U0001f3fc\u200d\u2696\ufe0f
p538
aa(lp539
Vmale-judge-type-4
p540
aV\U0001f468\U0001f3fd\u200d\u2696\ufe0f
p541
aa(lp542
Vmale-judge-type-5
p543
aV\U0001f468\U0001f3fe\u200d\u2696\ufe0f
p544
aa(lp545
Vmale-judge-type-6
p546
aV\U0001f468\U0001f3ff\u200d\u2696\ufe0f
p547
aa(lp548
Vfemale-judge
p549
aV\U0001f469\u200d\u2696\ufe0f
p550
aa(lp551
Vfemale-judge-type-1-2
p552
aV\U0001f469\U0001f3fb\u200d\u2696\ufe0f
p553
aa(lp554
Vfemale-judge-type-3
p555
aV\U0001f469\U0001f3fc\u200d\u2696\ufe0f
p556
aa(lp557
Vfemale-judge-type-4
p558
aV\U0001f469\U0001f3fd\u200d\u2696\ufe0f
p559
aa(lp560
Vfemale-judge-type-5
p561
aV\U0001f469\U0001f3fe\u200d\u2696\ufe0f
p562
aa(lp563
Vfemale-judge-type-6
p564
aV\U0001f469\U0001f3ff\u200d\u2696\ufe0f
p565
aa(lp566
Vmale-farmer
p567
aV\U0001f468\u200d\U0001f33e
p568
aa(lp569
Vmale-farmer-type-1-2
p570
aV\U0001f468\U0001f3fb\u200d\U0001f33e
p571
aa(lp572
Vmale-farmer-type-3
p573
aV\U0001f468\U0001f3fc\u200d\U0001f33e
p574
aa(lp575
Vmale-farmer-type-4
p576
aV\U0001f468\U0001f3fd\u200d\U0001f33e
p577
aa(lp578
Vmale-farmer-type-5
p579
aV\U0001f468\U0001f3fe\u200d\U0001f33e
p580
aa(lp581
Vmale-farmer-type-6
p582
aV\U0001f468\U0001f3ff\u200d\U0001f33e
p583
aa(lp584
Vfemale-farmer
p585
aV\U0001f469\u200d\U0001f33e
p586
aa(lp587
Vfemale-farmer-type-1-2
p588
aV\U0001f469\U0001f3fb\u200d\U0001f33e
p589
aa(lp590
Vfemale-farmer-type-3
p591
aV\U0001f469\U0001f3fc\u200d\U0001f33e
p592
aa(lp593
Vfemale-farmer-type-4
p594
aV\U0001f469\U0001f3fd\u200d\U0001f33e
p595
aa(lp596
Vfemale-farmer-type-5
p597
aV\U0001f469\U0001f3fe\u200d\U0001f33e
p598
aa(lp599
Vfemale-farmer-type-6
p600
aV\U0001f469\U0001f3ff\u200d\U0001f33e
p601
aa(lp602
Vmale-cook
p603
aV\U0001f468\u200d\U0001f373
p604
aa(lp605
Vmale-cook-type-1-2
p606
aV\U0001f468\U0001f3fb\u200d\U0001f373
p607
aa(lp608
Vmale-cook-type-3
p609
aV\U0001f468\U0001f3fc\u200d\U0001f373
p610
aa(lp611
Vmale-cook-type-4
p612
aV\U0001f468\U0001f3fd\u200d\U0001f373
p613
aa(lp614
Vmale-cook-type-5
p615
aV\U0001f468\U0001f3fe\u200d\U0001f373
p616
aa(lp617
Vmale-cook-type-6
p618
aV\U0001f468\U0001f3ff\u200d\U0001f373
p619
aa(lp620
Vfemale-cook
p621
aV\U0001f469\u200d\U0001f373
p622
aa(lp623
Vfemale-cook-type-1-2
p624
aV\U0001f469\U0001f3fb\u200d\U0001f373
p625
aa(lp626
Vfemale-cook-type-3
p627
aV\U0001f469\U0001f3fc\u200d\U0001f373
p628
aa(lp629
Vfemale-cook-type-4
p630
aV\U0001f469\U0001f3fd\u200d\U0001f373
p631
aa(lp632
Vfemale-cook-type-5
p633
aV\U0001f469\U0001f3fe\u200d\U0001f373
p634
aa(lp635
Vfemale-cook-type-6
p636
aV\U0001f469\U0001f3ff\u200d\U0001f373
p637
aa(lp638
Vmale-mechanic
p639
aV\U0001f468\u200d\U0001f527
p640
aa(lp641
Vmale-mechanic-type-1-2
p642
aV\U0001f468\U0001f3fb\u200d\U0001f527
p643
aa(lp644
Vmale-mechanic-type-3
p645
aV\U0001f468\U0001f3fc\u200d\U0001f527
p646
aa(lp647
Vmale-mechanic-type-4
p648
aV\U0001f468\U0001f3fd\u200d\U0001f527
p649
aa(lp650
Vmale-mechanic-type-5
p651
aV\U0001f468\U0001f3fe\u200d\U0001f527
p652
aa(lp653
Vmale-mechanic-type-6
p654
aV\U0001f468\U0001f3ff\u200d\U0001f527
p655
aa(lp656
Vfemale-mechanic
p657
aV\U0001f469\u200d\U0001f527
p658
aa(lp659
Vfemale-mechanic-type-1-2
p660
aV\U0001f469\U0001f3fb\u200d\U0001f527
p661
aa(lp662
Vfemale-mechanic-type-3
p663
aV\U0001f469\U0001f3fc\u200d\U0001f527
p664
aa(lp665
Vfemale-mechanic-type-4
p666
aV\U0001f469\U0001f3fd\u200d\U0001f527
p667
aa(lp668
Vfemale-mechanic-type-5
p669
aV\U0001f469\U0001f3fe\u200d\U0001f527
p670
aa(lp671
Vfemale-mechanic-type-6
p672
aV\U0001f469\U0001f3ff\u200d\U0001f527
p673
aa(lp674
Vmale-factory-worker
p675
aV\U0001f468\u200d\U0001f3ed
p676
aa(lp677
Vmale-factory-worker-type-1-2
p678
aV\U0001f468\U0001f3fb\u200d\U0001f3ed
p679
aa(lp680
Vmale-factory-worker-type-3
p681
aV\U0001f468\U0001f3fc\u200d\U0001f3ed
p682
aa(lp683
Vmale-factory-worker-type-4
p684
aV\U0001f468\U0001f3fd\u200d\U0001f3ed
p685
aa(lp686
Vmale-factory-worker-type-5
p687
aV\U0001f468\U0001f3fe\u200d\U0001f3ed
p688
aa(lp689
Vmale-factory-worker-type-6
p690
aV\U0001f468\U0001f3ff\u200d\U0001f3ed
p691
aa(lp692
Vfemale-factory-worker
p693
aV\U0001f469\u200d\U0001f3ed
p694
aa(lp695
Vfemale-factory-worker-type-1-2
p696
aV\U0001f469\U0001f3fb\u200d\U0001f3ed
p697
aa(lp698
Vfemale-factory-worker-type-3
p699
aV\U0001f469\U0001f3fc\u200d\U0001f3ed
p700
aa(lp701
Vfemale-factory-worker-type-4
p702
aV\U0001f469\U0001f3fd\u200d\U0001f3ed
p703
aa(lp704
Vfemale-factory-worker-type-5
p705
aV\U0001f469\U0001f3fe\u200d\U0001f3ed
p706
aa(lp707
Vfemale-factory-worker-type-6
p708
aV\U0001f469\U0001f3ff\u200d\U0001f3ed
p709
aa(lp710
Vmale-office-worker
p711
aV\U0001f468\u200d\U0001f4bc
p712
aa(lp713
Vmale-office-worker-type-1-2
p714
aV\U0001f468\U0001f3fb\u200d\U0001f4bc
p715
aa(lp716
Vmale-office-worker-type-3
p717
aV\U0001f468\U0001f3fc\u200d\U0001f4bc
p718
aa(lp719
Vmale-office-worker-type-4
p720
aV\U0001f468\U0001f3fd\u200d\U0001f4bc
p721
aa(lp722
Vmale-office-worker-type-5
p723
aV\U0001f468\U0001f3fe\u200d\U0001f4bc
p724
aa(lp725
Vmale-office-worker-type-6
p726
aV\U0001f468\U0001f3ff\u200d\U0001f4bc
p727
aa(lp728
Vfemale-office-worker
p729
aV\U0001f469\u200d\U0001f4bc
p730
aa(lp731
Vfemale-office-worker-type-1-2
p732
aV\U0001f469\U0001f3fb\u200d\U0001f4bc
p733
aa(lp734
Vfemale-office-worker-type-3
p735
aV\U0001f469\U0001f3fc\u200d\U0001f4bc
p736
aa(lp737
Vfemale-office-worker-type-4
p738
aV\U0001f469\U0001f3fd\u200d\U0001f4bc
p739
aa(lp740
Vfemale-office-worker-type-5
p741
aV\U0001f469\U0001f3fe\u200d\U0001f4bc
p742
aa(lp743
Vfemale-office-worker-type-6
p744
aV\U0001f469\U0001f3ff\u200d\U0001f4bc
p745
aa(lp746
Vmale-scientist
p747
aV\U0001f468\u200d\U0001f52c
p748
aa(lp749
Vmale-scientist-type-1-2
p750
aV\U0001f468\U0001f3fb\u200d\U0001f52c
p751
aa(lp752
Vmale-scientist-type-3
p753
aV\U0001f468\U0001f3fc\u200d\U0001f52c
p754
aa(lp755
Vmale-scientist-type-4
p756
aV\U0001f468\U0001f3fd\u200d\U0001f52c
p757
aa(lp758
Vmale-scientist-type-5
p759
aV\U0001f468\U0001f3fe\u200d\U0001f52c
p760
aa(lp761
Vmale-scientist-type-6
p762
aV\U0001f468\U0001f3ff\u200d\U0001f52c
p763
aa(lp764
Vfemale-scientist
p765
aV\U0001f469\u200d\U0001f52c
p766
aa(lp767
Vfemale-scientist-type-1-2
p768
aV\U0001f469\U0001f3fb\u200d\U0001f52c
p769
aa(lp770
Vfemale-scientist-type-3
p771
aV\U0001f469\U0001f3fc\u200d\U0001f52c
p772
aa(lp773
Vfemale-scientist-type-4
p774
aV\U0001f469\U0001f3fd\u200d\U0001f52c
p775
aa(lp776
Vfemale-scientist-type-5
p777
aV\U0001f469\U0001f3fe\u200d\U0001f52c
p778
aa(lp779
Vfemale-scientist-type-6
p780
aV\U0001f469\U0001f3ff\u200d\U0001f52c
p781
aa(lp782
Vmale-technologist
p783
aV\U0001f468\u200d\U0001f4bb
p784
aa(lp785
Vmale-technologist-type-1-2
p786
aV\U0001f468\U0001f3fb\u200d\U0001f4bb
p787
aa(lp788
Vmale-technologist-type-3
p789
aV\U0001f468\U0001f3fc\u200d\U0001f4bb
p790
aa(lp791
Vmale-technologist-type-4
p792
aV\U0001f468\U0001f3fd\u200d\U0001f4bb
p793
aa(lp794
Vmale-technologist-type-5
p795
aV\U0001f468\U0001f3fe\u200d\U0001f4bb
p796
aa(lp797
Vmale-technologist-type-6
p798
aV\U0001f468\U0001f3ff\u200d\U0001f4bb
p799
aa(lp800
Vfemale-technologist
p801
aV\U0001f469\u200d\U0001f4bb
p802
aa(lp803
Vfemale-technologist-type-1-2
p804
aV\U0001f469\U0001f3fb\u200d\U0001f4bb
p805
aa(lp806
Vfemale-technologist-type-3
p807
aV\U0001f469\U0001f3fc\u200d\U0001f4bb
p808
aa(lp809
Vfemale-technologist-type-4
p810
aV\U0001f469\U0001f3fd\u200d\U0001f4bb
p811
aa(lp812
Vfemale-technologist-type-5
p813
aV\U0001f469\U0001f3fe\u200d\U0001f4bb
p814
aa(lp815
Vfemale-technologist-type-6
p816
aV\U0001f469\U0001f3ff\u200d\U0001f4bb
p817
aa(lp818
Vmale-singer
p819
aV\U0001f468\u200d\U0001f3a4
p820
aa(lp821
Vmale-singer-type-1-2
p822
aV\U0001f468\U0001f3fb\u200d\U0001f3a4
p823
aa(lp824
Vmale-singer-type-3
p825
aV\U0001f468\U0001f3fc\u200d\U0001f3a4
p826
aa(lp827
Vmale-singer-type-4
p828
aV\U0001f468\U0001f3fd\u200d\U0001f3a4
p829
aa(lp830
Vmale-singer-type-5
p831
aV\U0001f468\U0001f3fe\u200d\U0001f3a4
p832
aa(lp833
Vmale-singer-type-6
p834
aV\U0001f468\U0001f3ff\u200d\U0001f3a4
p835
aa(lp836
Vfemale-singer
p837
aV\U0001f469\u200d\U0001f3a4
p838
aa(lp839
Vfemale-singer-type-1-2
p840
aV\U0001f469\U0001f3fb\u200d\U0001f3a4
p841
aa(lp842
Vfemale-singer-type-3
p843
aV\U0001f469\U0001f3fc\u200d\U0001f3a4
p844
aa(lp845
Vfemale-singer-type-4
p846
aV\U0001f469\U0001f3fd\u200d\U0001f3a4
p847
aa(lp848
Vfemale-singer-type-5
p849
aV\U0001f469\U0001f3fe\u200d\U0001f3a4
p850
aa(lp851
Vfemale-singer-type-6
p852
aV\U0001f469\U0001f3ff\u200d\U0001f3a4
p853
aa(lp854
Vmale-artist
p855
aV\U0001f468\u200d\U0001f3a8
p856
aa(lp857
Vmale-artist-type-1-2
p858
aV\U0001f468\U0001f3fb\u200d\U0001f3a8
p859
aa(lp860
Vmale-artist-type-3
p861
aV\U0001f468\U0001f3fc\u200d\U0001f3a8
p862
aa(lp863
Vmale-artist-type-4
p864
aV\U0001f468\U0001f3fd\u200d\U0001f3a8
p865
aa(lp866
Vmale-artist-type-5
p867
aV\U0001f468\U0001f3fe\u200d\U0001f3a8
p868
aa(lp869
Vmale-artist-type-6
p870
aV\U0001f468\U0001f3ff\u200d\U0001f3a8
p871
aa(lp872
Vfemale-artist
p873
aV\U0001f469\u200d\U0001f3a8
p874
aa(lp875
Vfemale-artist-type-1-2
p876
aV\U0001f469\U0001f3fb\u200d\U0001f3a8
p877
aa(lp878
Vfemale-artist-type-3
p879
aV\U0001f469\U0001f3fc\u200d\U0001f3a8
p880
aa(lp881
Vfemale-artist-type-4
p882
aV\U0001f469\U0001f3fd\u200d\U0001f3a8
p883
aa(lp884
Vfemale-artist-type-5
p885
aV\U0001f469\U0001f3fe\u200d\U0001f3a8
p886
aa(lp887
Vfemale-artist-type-6
p888
aV\U0001f469\U0001f3ff\u200d\U0001f3a8
p889
aa(lp890
Vmale-pilot
p891
aV\U0001f468\u200d\u2708\ufe0f
p892
aa(lp893
Vmale-pilot-type-1-2
p894
aV\U0001f468\U0001f3fb\u200d\u2708\ufe0f
p895
aa(lp896
Vmale-pilot-type-3
p897
aV\U0001f468\U0001f3fc\u200d\u2708\ufe0f
p898
aa(lp899
Vmale-pilot-type-4
p900
aV\U0001f468\U0001f3fd\u200d\u2708\ufe0f
p901
aa(lp902
Vmale-pilot-type-5
p903
aV\U0001f468\U0001f3fe\u200d\u2708\ufe0f
p904
aa(lp905
Vmale-pilot-type-6
p906
aV\U0001f468\U0001f3ff\u200d\u2708\ufe0f
p907
aa(lp908
Vfemale-pilot
p909
aV\U0001f469\u200d\u2708\ufe0f
p910
aa(lp911
Vfemale-pilot-type-1-2
p912
aV\U0001f469\U0001f3fb\u200d\u2708\ufe0f
p913
aa(lp914
Vfemale-pilot-type-3
p915
aV\U0001f469\U0001f3fc\u200d\u2708\ufe0f
p916
aa(lp917
Vfemale-pilot-type-4
p918
aV\U0001f469\U0001f3fd\u200d\u2708\ufe0f
p919
aa(lp920
Vfemale-pilot-type-5
p921
aV\U0001f469\U0001f3fe\u200d\u2708\ufe0f
p922
aa(lp923
Vfemale-pilot-type-6
p924
aV\U0001f469\U0001f3ff\u200d\u2708\ufe0f
p925
aa(lp926
Vmale-astronaut
p927
aV\U0001f468\u200d\U0001f680
p928
aa(lp929
Vmale-astronaut-type-1-2
p930
aV\U0001f468\U0001f3fb\u200d\U0001f680
p931
aa(lp932
Vmale-astronaut-type-3
p933
aV\U0001f468\U0001f3fc\u200d\U0001f680
p934
aa(lp935
Vmale-astronaut-type-4
p936
aV\U0001f468\U0001f3fd\u200d\U0001f680
p937
aa(lp938
Vmale-astronaut-type-5
p939
aV\U0001f468\U0001f3fe\u200d\U0001f680
p940
aa(lp941
Vmale-astronaut-type-6
p942
aV\U0001f468\U0001f3ff\u200d\U0001f680
p943
aa(lp944
Vfemale-astronaut
p945
aV\U0001f469\u200d\U0001f680
p946
aa(lp947
Vfemale-astronaut-type-1-2
p948
aV\U0001f469\U0001f3fb\u200d\U0001f680
p949
aa(lp950
Vfemale-astronaut-type-3
p951
aV\U0001f469\U0001f3fc\u200d\U0001f680
p952
aa(lp953
Vfemale-astronaut-type-4
p954
aV\U0001f469\U0001f3fd\u200d\U0001f680
p955
aa(lp956
Vfemale-astronaut-type-5
p957
aV\U0001f469\U0001f3fe\u200d\U0001f680
p958
aa(lp959
Vfemale-astronaut-type-6
p960
aV\U0001f469\U0001f3ff\u200d\U0001f680
p961
aa(lp962
Vmale-firefighter
p963
aV\U0001f468\u200d\U0001f692
p964
aa(lp965
Vmale-firefighter-type-1-2
p966
aV\U0001f468\U0001f3fb\u200d\U0001f692
p967
aa(lp968
Vmale-firefighter-type-3
p969
aV\U0001f468\U0001f3fc\u200d\U0001f692
p970
aa(lp971
Vmale-firefighter-type-4
p972
aV\U0001f468\U0001f3fd\u200d\U0001f692
p973
aa(lp974
Vmale-firefighter-type-5
p975
aV\U0001f468\U0001f3fe\u200d\U0001f692
p976
aa(lp977
Vmale-firefighter-type-6
p978
aV\U0001f468\U0001f3ff\u200d\U0001f692
p979
aa(lp980
Vfemale-firefighter
p981
aV\U0001f469\u200d\U0001f692
p982
aa(lp983
Vfemale-firefighter-type-1-2
p984
aV\U0001f469\U0001f3fb\u200d\U0001f692
p985
aa(lp986
Vfemale-firefighter-type-3
p987
aV\U0001f469\U0001f3fc\u200d\U0001f692
p988
aa(lp989
Vfemale-firefighter-type-4
p990
aV\U0001f469\U0001f3fd\u200d\U0001f692
p991
aa(lp992
Vfemale-firefighter-type-5
p993
aV\U0001f469\U0001f3fe\u200d\U0001f692
p994
aa(lp995
Vfemale-firefighter-type-6
p996
aV\U0001f469\U0001f3ff\u200d\U0001f692
p997
aa(lp998
Vpolice-officer
p999
aV\U0001f46e
p1000
aa(lp1001
Vpolice-officer-type-1-2
p1002
aV\U0001f46e\U0001f3fb
p1003
aa(lp1004
Vpolice-officer-type-3
p1005
aV\U0001f46e\U0001f3fc
p1006
aa(lp1007
Vpolice-officer-type-4
p1008
aV\U0001f46e\U0001f3fd
p1009
aa(lp1010
Vpolice-officer-type-5
p1011
aV\U0001f46e\U0001f3fe
p1012
aa(lp1013
Vpolice-officer-type-6
p1014
aV\U0001f46e\U0001f3ff
p1015
aa(lp1016
Vmale-police-officer
p1017
aV\U0001f46e\u200d\u2642\ufe0f
p1018
aa(lp1019
Vmale-police-officer-type-1-2
p1020
aV\U0001f46e\U0001f3fb\u200d\u2642\ufe0f
p1021
aa(lp1022
Vmale-police-officer-type-3
p1023
aV\U0001f46e\U0001f3fc\u200d\u2642\ufe0f
p1024
aa(lp1025
Vmale-police-officer-type-4
p1026
aV\U0001f46e\U0001f3fd\u200d\u2642\ufe0f
p1027
aa(lp1028
Vmale-police-officer-type-5
p1029
aV\U0001f46e\U0001f3fe\u200d\u2642\ufe0f
p1030
aa(lp1031
Vmale-police-officer-type-6
p1032
aV\U0001f46e\U0001f3ff\u200d\u2642\ufe0f
p1033
aa(lp1034
Vfemale-police-officer
p1035
aV\U0001f46e\u200d\u2640\ufe0f
p1036
aa(lp1037
Vfemale-police-officer-type-1-2
p1038
aV\U0001f46e\U0001f3fb\u200d\u2640\ufe0f
p1039
aa(lp1040
Vfemale-police-officer-type-3
p1041
aV\U0001f46e\U0001f3fc\u200d\u2640\ufe0f
p1042
aa(lp1043
Vfemale-police-officer-type-4
p1044
aV\U0001f46e\U0001f3fd\u200d\u2640\ufe0f
p1045
aa(lp1046
Vfemale-police-officer-type-5
p1047
aV\U0001f46e\U0001f3fe\u200d\u2640\ufe0f
p1048
aa(lp1049
Vfemale-police-officer-type-6
p1050
aV\U0001f46e\U0001f3ff\u200d\u2640\ufe0f
p1051
aa(lp1052
Vsleuth-or-spy
p1053
aV\U0001f575
p1054
aa(lp1055
Vsleuth-or-spy-type-1-2
p1056
aV\U0001f575\U0001f3fb
p1057
aa(lp1058
Vsleuth-or-spy-type-3
p1059
aV\U0001f575\U0001f3fc
p1060
aa(lp1061
Vsleuth-or-spy-type-4
p1062
aV\U0001f575\U0001f3fd
p1063
aa(lp1064
Vsleuth-or-spy-type-5
p1065
aV\U0001f575\U0001f3fe
p1066
aa(lp1067
Vsleuth-or-spy-type-6
p1068
aV\U0001f575\U0001f3ff
p1069
aa(lp1070
Vmale-sleuth
p1071
aV\U0001f575\ufe0f\u200d\u2642\ufe0f
p1072
aa(lp1073
Vmale-sleuth-type-1-2
p1074
aV\U0001f575\U0001f3fb\u200d\u2642\ufe0f
p1075
aa(lp1076
Vmale-sleuth-type-3
p1077
aV\U0001f575\U0001f3fc\u200d\u2642\ufe0f
p1078
aa(lp1079
Vmale-sleuth-type-4
p1080
aV\U0001f575\U0001f3fd\u200d\u2642\ufe0f
p1081
aa(lp1082
Vmale-sleuth-type-5
p1083
aV\U0001f575\U0001f3fe\u200d\u2642\ufe0f
p1084
aa(lp1085
Vmale-sleuth-type-6
p1086
aV\U0001f575\U0001f3ff\u200d\u2642\ufe0f
p1087
aa(lp1088
Vfemale-sleuth
p1089
aV\U0001f575\ufe0f\u200d\u2640\ufe0f
p1090
aa(lp1091
Vfemale-sleuth-type-1-2
p1092
aV\U0001f575\U0001f3fb\u200d\u2640\ufe0f
p1093
aa(lp1094
Vfemale-sleuth-type-3
p1095
aV\U0001f575\U0001f3fc\u200d\u2640\ufe0f
p1096
aa(lp1097
Vfemale-sleuth-type-4
p1098
aV\U0001f575\U0001f3fd\u200d\u2640\ufe0f
p1099
aa(lp1100
Vfemale-sleuth-type-5
p1101
aV\U0001f575\U0001f3fe\u200d\u2640\ufe0f
p1102
aa(lp1103
Vfemale-sleuth-type-6
p1104
aV\U0001f575\U0001f3ff\u200d\u2640\ufe0f
p1105
aa(lp1106
Vguardsman
p1107
aV\U0001f482
p1108
aa(lp1109
Vguardsman-type-1-2
p1110
aV\U0001f482\U0001f3fb
p1111
aa(lp1112
Vguardsman-type-3
p1113
aV\U0001f482\U0001f3fc
p1114
aa(lp1115
Vguardsman-type-4
p1116
aV\U0001f482\U0001f3fd
p1117
aa(lp1118
Vguardsman-type-5
p1119
aV\U0001f482\U0001f3fe
p1120
aa(lp1121
Vguardsman-type-6
p1122
aV\U0001f482\U0001f3ff
p1123
aa(lp1124
Vmale-guard
p1125
aV\U0001f482\u200d\u2642\ufe0f
p1126
aa(lp1127
Vmale-guard-type-1-2
p1128
aV\U0001f482\U0001f3fb\u200d\u2642\ufe0f
p1129
aa(lp1130
Vmale-guard-type-3
p1131
aV\U0001f482\U0001f3fc\u200d\u2642\ufe0f
p1132
aa(lp1133
Vmale-guard-type-4
p1134
aV\U0001f482\U0001f3fd\u200d\u2642\ufe0f
p1135
aa(lp1136
Vmale-guard-type-5
p1137
aV\U0001f482\U0001f3fe\u200d\u2642\ufe0f
p1138
aa(lp1139
Vmale-guard-type-6
p1140
aV\U0001f482\U0001f3ff\u200d\u2642\ufe0f
p1141
aa(lp1142
Vfemale-guard
p1143
aV\U0001f482\u200d\u2640\ufe0f
p1144
aa(lp1145
Vfemale-guard-type-1-2
p1146
aV\U0001f482\U0001f3fb\u200d\u2640\ufe0f
p1147
aa(lp1148
Vfemale-guard-type-3
p1149
aV\U0001f482\U0001f3fc\u200d\u2640\ufe0f
p1150
aa(lp1151
Vfemale-guard-type-4
p1152
aV\U0001f482\U0001f3fd\u200d\u2640\ufe0f
p1153
aa(lp1154
Vfemale-guard-type-5
p1155
aV\U0001f482\U0001f3fe\u200d\u2640\ufe0f
p1156
aa(lp1157
Vfemale-guard-type-6
p1158
aV\U0001f482\U0001f3ff\u200d\u2640\ufe0f
p1159
aa(lp1160
Vconstruction-worker
p1161
aV\U0001f477
p1162
aa(lp1163
Vconstruction-worker-type-1-2
p1164
aV\U0001f477\U0001f3fb
p1165
aa(lp1166
Vconstruction-worker-type-3
p1167
aV\U0001f477\U0001f3fc
p1168
aa(lp1169
Vconstruction-worker-type-4
p1170
aV\U0001f477\U0001f3fd
p1171
aa(lp1172
Vconstruction-worker-type-5
p1173
aV\U0001f477\U0001f3fe
p1174
aa(lp1175
Vconstruction-worker-type-6
p1176
aV\U0001f477\U0001f3ff
p1177
aa(lp1178
Vmale-construction-worker
p1179
aV\U0001f477\u200d\u2642\ufe0f
p1180
aa(lp1181
Vmale-construction-worker-type-1-2
p1182
aV\U0001f477\U0001f3fb\u200d\u2642\ufe0f
p1183
aa(lp1184
Vmale-construction-worker-type-3
p1185
aV\U0001f477\U0001f3fc\u200d\u2642\ufe0f
p1186
aa(lp1187
Vmale-construction-worker-type-4
p1188
aV\U0001f477\U0001f3fd\u200d\u2642\ufe0f
p1189
aa(lp1190
Vmale-construction-worker-type-5
p1191
aV\U0001f477\U0001f3fe\u200d\u2642\ufe0f
p1192
aa(lp1193
Vmale-construction-worker-type-6
p1194
aV\U0001f477\U0001f3ff\u200d\u2642\ufe0f
p1195
aa(lp1196
Vfemale-construction-worker
p1197
aV\U0001f477\u200d\u2640\ufe0f
p1198
aa(lp1199
Vfemale-construction-worker-type-1-2
p1200
aV\U0001f477\U0001f3fb\u200d\u2640\ufe0f
p1201
aa(lp1202
Vfemale-construction-worker-type-3
p1203
aV\U0001f477\U0001f3fc\u200d\u2640\ufe0f
p1204
aa(lp1205
Vfemale-construction-worker-type-4
p1206
aV\U0001f477\U0001f3fd\u200d\u2640\ufe0f
p1207
aa(lp1208
Vfemale-construction-worker-type-5
p1209
aV\U0001f477\U0001f3fe\u200d\u2640\ufe0f
p1210
aa(lp1211
Vfemale-construction-worker-type-6
p1212
aV\U0001f477\U0001f3ff\u200d\u2640\ufe0f
p1213
aa(lp1214
Vprince
p1215
aV\U0001f934
p1216
aa(lp1217
Vprince-type-1-2
p1218
aV\U0001f934\U0001f3fb
p1219
aa(lp1220
Vprince-type-3
p1221
aV\U0001f934\U0001f3fc
p1222
aa(lp1223
Vprince-type-4
p1224
aV\U0001f934\U0001f3fd
p1225
aa(lp1226
Vprince-type-5
p1227
aV\U0001f934\U0001f3fe
p1228
aa(lp1229
Vprince-type-6
p1230
aV\U0001f934\U0001f3ff
p1231
aa(lp1232
Vprincess
p1233
aV\U0001f478
p1234
aa(lp1235
Vprincess-type-1-2
p1236
aV\U0001f478\U0001f3fb
p1237
aa(lp1238
Vprincess-type-3
p1239
aV\U0001f478\U0001f3fc
p1240
aa(lp1241
Vprincess-type-4
p1242
aV\U0001f478\U0001f3fd
p1243
aa(lp1244
Vprincess-type-5
p1245
aV\U0001f478\U0001f3fe
p1246
aa(lp1247
Vprincess-type-6
p1248
aV\U0001f478\U0001f3ff
p1249
aa(lp1250
Vman-with-turban
p1251
aV\U0001f473
p1252
aa(lp1253
Vman-with-turban-type-1-2
p1254
aV\U0001f473\U0001f3fb
p1255
aa(lp1256
Vman-with-turban-type-3
p1257
aV\U0001f473\U0001f3fc
p1258
aa(lp1259
Vman-with-turban-type-4
p1260
aV\U0001f473\U0001f3fd
p1261
aa(lp1262
Vman-with-turban-type-5
p1263
aV\U0001f473\U0001f3fe
p1264
aa(lp1265
Vman-with-turban-type-6
p1266
aV\U0001f473\U0001f3ff
p1267
aa(lp1268
Vman-wearing-turban
p1269
aV\U0001f473\u200d\u2642\ufe0f
p1270
aa(lp1271
Vman-wearing-turban-type-1-2
p1272
aV\U0001f473\U0001f3fb\u200d\u2642\ufe0f
p1273
aa(lp1274
Vman-wearing-turban-type-3
p1275
aV\U0001f473\U0001f3fc\u200d\u2642\ufe0f
p1276
aa(lp1277
Vman-wearing-turban-type-4
p1278
aV\U0001f473\U0001f3fd\u200d\u2642\ufe0f
p1279
aa(lp1280
Vman-wearing-turban-type-5
p1281
aV\U0001f473\U0001f3fe\u200d\u2642\ufe0f
p1282
aa(lp1283
Vman-wearing-turban-type-6
p1284
aV\U0001f473\U0001f3ff\u200d\u2642\ufe0f
p1285
aa(lp1286
Vwoman-wearing-turban
p1287
aV\U0001f473\u200d\u2640\ufe0f
p1288
aa(lp1289
Vwoman-wearing-turban-type-1-2
p1290
aV\U0001f473\U0001f3fb\u200d\u2640\ufe0f
p1291
aa(lp1292
Vwoman-wearing-turban-type-3
p1293
aV\U0001f473\U0001f3fc\u200d\u2640\ufe0f
p1294
aa(lp1295
Vwoman-wearing-turban-type-4
p1296
aV\U0001f473\U0001f3fd\u200d\u2640\ufe0f
p1297
aa(lp1298
Vwoman-wearing-turban-type-5
p1299
aV\U0001f473\U0001f3fe\u200d\u2640\ufe0f
p1300
aa(lp1301
Vwoman-wearing-turban-type-6
p1302
aV\U0001f473\U0001f3ff\u200d\u2640\ufe0f
p1303
aa(lp1304
Vman-with-gua-pi-mao
p1305
aV\U0001f472
p1306
aa(lp1307
Vman-with-gua-pi-mao-type-1-2
p1308
aV\U0001f472\U0001f3fb
p1309
aa(lp1310
Vman-with-gua-pi-mao-type-3
p1311
aV\U0001f472\U0001f3fc
p1312
aa(lp1313
Vman-with-gua-pi-mao-type-4
p1314
aV\U0001f472\U0001f3fd
p1315
aa(lp1316
Vman-with-gua-pi-mao-type-5
p1317
aV\U0001f472\U0001f3fe
p1318
aa(lp1319
Vman-with-gua-pi-mao-type-6
p1320
aV\U0001f472\U0001f3ff
p1321
aa(lp1322
Vperson-with-blond-hair
p1323
aV\U0001f471
p1324
aa(lp1325
Vperson-with-blond-hair-type-1-2
p1326
aV\U0001f471\U0001f3fb
p1327
aa(lp1328
Vperson-with-blond-hair-type-3
p1329
aV\U0001f471\U0001f3fc
p1330
aa(lp1331
Vperson-with-blond-hair-type-4
p1332
aV\U0001f471\U0001f3fd
p1333
aa(lp1334
Vperson-with-blond-hair-type-5
p1335
aV\U0001f471\U0001f3fe
p1336
aa(lp1337
Vperson-with-blond-hair-type-6
p1338
aV\U0001f471\U0001f3ff
p1339
aa(lp1340
Vblond-man
p1341
aV\U0001f471\u200d\u2642\ufe0f
p1342
aa(lp1343
Vblond-man-type-1-2
p1344
aV\U0001f471\U0001f3fb\u200d\u2642\ufe0f
p1345
aa(lp1346
Vblond-man-type-3
p1347
aV\U0001f471\U0001f3fc\u200d\u2642\ufe0f
p1348
aa(lp1349
Vblond-man-type-4
p1350
aV\U0001f471\U0001f3fd\u200d\u2642\ufe0f
p1351
aa(lp1352
Vblond-man-type-5
p1353
aV\U0001f471\U0001f3fe\u200d\u2642\ufe0f
p1354
aa(lp1355
Vblond-man-type-6
p1356
aV\U0001f471\U0001f3ff\u200d\u2642\ufe0f
p1357
aa(lp1358
Vblonde-woman
p1359
aV\U0001f471\u200d\u2640\ufe0f
p1360
aa(lp1361
Vblonde-woman-type-1-2
p1362
aV\U0001f471\U0001f3fb\u200d\u2640\ufe0f
p1363
aa(lp1364
Vblonde-woman-type-3
p1365
aV\U0001f471\U0001f3fc\u200d\u2640\ufe0f
p1366
aa(lp1367
Vblonde-woman-type-4
p1368
aV\U0001f471\U0001f3fd\u200d\u2640\ufe0f
p1369
aa(lp1370
Vblonde-woman-type-5
p1371
aV\U0001f471\U0001f3fe\u200d\u2640\ufe0f
p1372
aa(lp1373
Vblonde-woman-type-6
p1374
aV\U0001f471\U0001f3ff\u200d\u2640\ufe0f
p1375
aa(lp1376
Vman-in-tuxedo
p1377
aV\U0001f935
p1378
aa(lp1379
Vman-in-tuxedo-type-1-2
p1380
aV\U0001f935\U0001f3fb
p1381
aa(lp1382
Vman-in-tuxedo-type-3
p1383
aV\U0001f935\U0001f3fc
p1384
aa(lp1385
Vman-in-tuxedo-type-4
p1386
aV\U0001f935\U0001f3fd
p1387
aa(lp1388
Vman-in-tuxedo-type-5
p1389
aV\U0001f935\U0001f3fe
p1390
aa(lp1391
Vman-in-tuxedo-type-6
p1392
aV\U0001f935\U0001f3ff
p1393
aa(lp1394
Vbride-with-veil
p1395
aV\U0001f470
p1396
aa(lp1397
Vbride-with-veil-type-1-2
p1398
aV\U0001f470\U0001f3fb
p1399
aa(lp1400
Vbride-with-veil-type-3
p1401
aV\U0001f470\U0001f3fc
p1402
aa(lp1403
Vbride-with-veil-type-4
p1404
aV\U0001f470\U0001f3fd
p1405
aa(lp1406
Vbride-with-veil-type-5
p1407
aV\U0001f470\U0001f3fe
p1408
aa(lp1409
Vbride-with-veil-type-6
p1410
aV\U0001f470\U0001f3ff
p1411
aa(lp1412
Vpregnant-woman
p1413
aV\U0001f930
p1414
aa(lp1415
Vpregnant-woman-type-1-2
p1416
aV\U0001f930\U0001f3fb
p1417
aa(lp1418
Vpregnant-woman-type-3
p1419
aV\U0001f930\U0001f3fc
p1420
aa(lp1421
Vpregnant-woman-type-4
p1422
aV\U0001f930\U0001f3fd
p1423
aa(lp1424
Vpregnant-woman-type-5
p1425
aV\U0001f930\U0001f3fe
p1426
aa(lp1427
Vpregnant-woman-type-6
p1428
aV\U0001f930\U0001f3ff
p1429
aa(lp1430
Vbaby-angel
p1431
aV\U0001f47c
p1432
aa(lp1433
Vbaby-angel-type-1-2
p1434
aV\U0001f47c\U0001f3fb
p1435
aa(lp1436
Vbaby-angel-type-3
p1437
aV\U0001f47c\U0001f3fc
p1438
aa(lp1439
Vbaby-angel-type-4
p1440
aV\U0001f47c\U0001f3fd
p1441
aa(lp1442
Vbaby-angel-type-5
p1443
aV\U0001f47c\U0001f3fe
p1444
aa(lp1445
Vbaby-angel-type-6
p1446
aV\U0001f47c\U0001f3ff
p1447
aa(lp1448
Vfather-christmas
p1449
aV\U0001f385
p1450
aa(lp1451
Vfather-christmas-type-1-2
p1452
aV\U0001f385\U0001f3fb
p1453
aa(lp1454
Vfather-christmas-type-3
p1455
aV\U0001f385\U0001f3fc
p1456
aa(lp1457
Vfather-christmas-type-4
p1458
aV\U0001f385\U0001f3fd
p1459
aa(lp1460
Vfather-christmas-type-5
p1461
aV\U0001f385\U0001f3fe
p1462
aa(lp1463
Vfather-christmas-type-6
p1464
aV\U0001f385\U0001f3ff
p1465
aa(lp1466
Vmother-christmas
p1467
aV\U0001f936
p1468
aa(lp1469
Vmother-christmas-type-1-2
p1470
aV\U0001f936\U0001f3fb
p1471
aa(lp1472
Vmother-christmas-type-3
p1473
aV\U0001f936\U0001f3fc
p1474
aa(lp1475
Vmother-christmas-type-4
p1476
aV\U0001f936\U0001f3fd
p1477
aa(lp1478
Vmother-christmas-type-5
p1479
aV\U0001f936\U0001f3fe
p1480
aa(lp1481
Vmother-christmas-type-6
p1482
aV\U0001f936\U0001f3ff
p1483
aa(lp1484
Vperson-frowning
p1485
aV\U0001f64d
p1486
aa(lp1487
Vperson-frowning-type-1-2
p1488
aV\U0001f64d\U0001f3fb
p1489
aa(lp1490
Vperson-frowning-type-3
p1491
aV\U0001f64d\U0001f3fc
p1492
aa(lp1493
Vperson-frowning-type-4
p1494
aV\U0001f64d\U0001f3fd
p1495
aa(lp1496
Vperson-frowning-type-5
p1497
aV\U0001f64d\U0001f3fe
p1498
aa(lp1499
Vperson-frowning-type-6
p1500
aV\U0001f64d\U0001f3ff
p1501
aa(lp1502
Vman-frowning
p1503
aV\U0001f64d\u200d\u2642\ufe0f
p1504
aa(lp1505
Vman-frowning-type-1-2
p1506
aV\U0001f64d\U0001f3fb\u200d\u2642\ufe0f
p1507
aa(lp1508
Vemoji-modifier-fitzpatrick-type-1-2
p1509
aV\U0001f3fb
p1510
aa(lp1511
Vman-frowning-type-3
p1512
aV\U0001f64d\U0001f3fc\u200d\u2642\ufe0f
p1513
aa(lp1514
Vemoji-modifier-fitzpatrick-type-3
p1515
aV\U0001f3fc
p1516
aa(lp1517
Vemoji-modifier-fitzpatrick-type-4
p1518
aV\U0001f3fd
p1519
aa(lp1520
Vman-frowning-type-4
p1521
aV\U0001f64d\U0001f3fd\u200d\u2642\ufe0f
p1522
aa(lp1523
Vemoji-modifier-fitzpatrick-type-5
p1524
aV\U0001f3fe
p1525
aa(lp1526
Vemoji-modifier-fitzpatrick-type-6
p1527
aV\U0001f3ff
p1528
aa(lp1529
Vman-frowning-type-5
p1530
aV\U0001f64d\U0001f3fe\u200d\u2642\ufe0f
p1531
aa(lp1532
Vman-frowning-type-6
p1533
aV\U0001f64d\U0001f3ff\u200d\u2642\ufe0f
p1534
aa(lp1535
Vwoman-frowning
p1536
aV\U0001f64d\u200d\u2640\ufe0f
p1537
aa(lp1538
Vwoman-frowning-type-1-2
p1539
aV\U0001f64d\U0001f3fb\u200d\u2640\ufe0f
p1540
aa(lp1541
Vwoman-frowning-type-3
p1542
aV\U0001f64d\U0001f3fc\u200d\u2640\ufe0f
p1543
aa(lp1544
Vwoman-frowning-type-4
p1545
aV\U0001f64d\U0001f3fd\u200d\u2640\ufe0f
p1546
aa(lp1547
Vwoman-frowning-type-5
p1548
aV\U0001f64d\U0001f3fe\u200d\u2640\ufe0f
p1549
aa(lp1550
Vwoman-frowning-type-6
p1551
aV\U0001f64d\U0001f3ff\u200d\u2640\ufe0f
p1552
aa(lp1553
Vperson-with-pouting-face
p1554
aV\U0001f64e
p1555
aa(lp1556
Vperson-with-pouting-face-type-1-2
p1557
aV\U0001f64e\U0001f3fb
p1558
aa(lp1559
Vperson-with-pouting-face-type-3
p1560
aV\U0001f64e\U0001f3fc
p1561
aa(lp1562
Vperson-with-pouting-face-type-4
p1563
aV\U0001f64e\U0001f3fd
p1564
aa(lp1565
Vperson-with-pouting-face-type-5
p1566
aV\U0001f64e\U0001f3fe
p1567
aa(lp1568
Vperson-with-pouting-face-type-6
p1569
aV\U0001f64e\U0001f3ff
p1570
aa(lp1571
Vman-pouting
p1572
aV\U0001f64e\u200d\u2642\ufe0f
p1573
aa(lp1574
Vman-pouting-type-1-2
p1575
aV\U0001f64e\U0001f3fb\u200d\u2642\ufe0f
p1576
aa(lp1577
Vman-pouting-type-3
p1578
aV\U0001f64e\U0001f3fc\u200d\u2642\ufe0f
p1579
aa(lp1580
Vman-pouting-type-4
p1581
aV\U0001f64e\U0001f3fd\u200d\u2642\ufe0f
p1582
aa(lp1583
Vman-pouting-type-5
p1584
aV\U0001f64e\U0001f3fe\u200d\u2642\ufe0f
p1585
aa(lp1586
Vman-pouting-type-6
p1587
aV\U0001f64e\U0001f3ff\u200d\u2642\ufe0f
p1588
aa(lp1589
Vwoman-pouting
p1590
aV\U0001f64e\u200d\u2640\ufe0f
p1591
aa(lp1592
Vwoman-pouting-type-1-2
p1593
aV\U0001f64e\U0001f3fb\u200d\u2640\ufe0f
p1594
aa(lp1595
Vwoman-pouting-type-3
p1596
aV\U0001f64e\U0001f3fc\u200d\u2640\ufe0f
p1597
aa(lp1598
Vwoman-pouting-type-4
p1599
aV\U0001f64e\U0001f3fd\u200d\u2640\ufe0f
p1600
aa(lp1601
Vwoman-pouting-type-5
p1602
aV\U0001f64e\U0001f3fe\u200d\u2640\ufe0f
p1603
aa(lp1604
Vwoman-pouting-type-6
p1605
aV\U0001f64e\U0001f3ff\u200d\u2640\ufe0f
p1606
aa(lp1607
Vface-with-no-good-gesture
p1608
aV\U0001f645
p1609
aa(lp1610
Vface-with-no-good-gesture-type-1-2
p1611
aV\U0001f645\U0001f3fb
p1612
aa(lp1613
Vface-with-no-good-gesture-type-3
p1614
aV\U0001f645\U0001f3fc
p1615
aa(lp1616
Vface-with-no-good-gesture-type-4
p1617
aV\U0001f645\U0001f3fd
p1618
aa(lp1619
Vface-with-no-good-gesture-type-5
p1620
aV\U0001f645\U0001f3fe
p1621
aa(lp1622
Vface-with-no-good-gesture-type-6
p1623
aV\U0001f645\U0001f3ff
p1624
aa(lp1625
Vman-gesturing-not-ok
p1626
aV\U0001f645\u200d\u2642\ufe0f
p1627
aa(lp1628
Vman-gesturing-not-ok-type-1-2
p1629
aV\U0001f645\U0001f3fb\u200d\u2642\ufe0f
p1630
aa(lp1631
Vman-gesturing-not-ok-type-3
p1632
aV\U0001f645\U0001f3fc\u200d\u2642\ufe0f
p1633
aa(lp1634
Vman-gesturing-not-ok-type-4
p1635
aV\U0001f645\U0001f3fd\u200d\u2642\ufe0f
p1636
aa(lp1637
Vman-gesturing-not-ok-type-5
p1638
aV\U0001f645\U0001f3fe\u200d\u2642\ufe0f
p1639
aa(lp1640
Vman-gesturing-not-ok-type-6
p1641
aV\U0001f645\U0001f3ff\u200d\u2642\ufe0f
p1642
aa(lp1643
Vwoman-gesturing-not-ok
p1644
aV\U0001f645\u200d\u2640\ufe0f
p1645
aa(lp1646
Vwoman-gesturing-not-ok-type-1-2
p1647
aV\U0001f645\U0001f3fb\u200d\u2640\ufe0f
p1648
aa(lp1649
Vwoman-gesturing-not-ok-type-3
p1650
aV\U0001f645\U0001f3fc\u200d\u2640\ufe0f
p1651
aa(lp1652
Vwoman-gesturing-not-ok-type-4
p1653
aV\U0001f645\U0001f3fd\u200d\u2640\ufe0f
p1654
aa(lp1655
Vwoman-gesturing-not-ok-type-5
p1656
aV\U0001f645\U0001f3fe\u200d\u2640\ufe0f
p1657
aa(lp1658
Vwoman-gesturing-not-ok-type-6
p1659
aV\U0001f645\U0001f3ff\u200d\u2640\ufe0f
p1660
aa(lp1661
Vface-with-ok-gesture
p1662
aV\U0001f646
p1663
aa(lp1664
Vface-with-ok-gesture-type-1-2
p1665
aV\U0001f646\U0001f3fb
p1666
aa(lp1667
Vface-with-ok-gesture-type-3
p1668
aV\U0001f646\U0001f3fc
p1669
aa(lp1670
Vface-with-ok-gesture-type-4
p1671
aV\U0001f646\U0001f3fd
p1672
aa(lp1673
Vface-with-ok-gesture-type-5
p1674
aV\U0001f646\U0001f3fe
p1675
aa(lp1676
Vface-with-ok-gesture-type-6
p1677
aV\U0001f646\U0001f3ff
p1678
aa(lp1679
Vman-gesturing-ok
p1680
aV\U0001f646\u200d\u2642\ufe0f
p1681
aa(lp1682
Vman-gesturing-ok-type-1-2
p1683
aV\U0001f646\U0001f3fb\u200d\u2642\ufe0f
p1684
aa(lp1685
Vman-gesturing-ok-type-3
p1686
aV\U0001f646\U0001f3fc\u200d\u2642\ufe0f
p1687
aa(lp1688
Vman-gesturing-ok-type-4
p1689
aV\U0001f646\U0001f3fd\u200d\u2642\ufe0f
p1690
aa(lp1691
Vman-gesturing-ok-type-5
p1692
aV\U0001f646\U0001f3fe\u200d\u2642\ufe0f
p1693
aa(lp1694
Vman-gesturing-ok-type-6
p1695
aV\U0001f646\U0001f3ff\u200d\u2642\ufe0f
p1696
aa(lp1697
Vwoman-gesturing-ok
p1698
aV\U0001f646\u200d\u2640\ufe0f
p1699
aa(lp1700
Vwoman-gesturing-ok-type-1-2
p1701
aV\U0001f646\U0001f3fb\u200d\u2640\ufe0f
p1702
aa(lp1703
Vwoman-gesturing-ok-type-3
p1704
aV\U0001f646\U0001f3fc\u200d\u2640\ufe0f
p1705
aa(lp1706
Vwoman-gesturing-ok-type-4
p1707
aV\U0001f646\U0001f3fd\u200d\u2640\ufe0f
p1708
aa(lp1709
Vwoman-gesturing-ok-type-5
p1710
aV\U0001f646\U0001f3fe\u200d\u2640\ufe0f
p1711
aa(lp1712
Vwoman-gesturing-ok-type-6
p1713
aV\U0001f646\U0001f3ff\u200d\u2640\ufe0f
p1714
aa(lp1715
Vinformation-desk-person
p1716
aV\U0001f481
p1717
aa(lp1718
Vinformation-desk-person-type-1-2
p1719
aV\U0001f481\U0001f3fb
p1720
aa(lp1721
Vinformation-desk-person-type-3
p1722
aV\U0001f481\U0001f3fc
p1723
aa(lp1724
Vinformation-desk-person-type-4
p1725
aV\U0001f481\U0001f3fd
p1726
aa(lp1727
Vinformation-desk-person-type-5
p1728
aV\U0001f481\U0001f3fe
p1729
aa(lp1730
Vinformation-desk-person-type-6
p1731
aV\U0001f481\U0001f3ff
p1732
aa(lp1733
Vman-tipping-hand
p1734
aV\U0001f481\u200d\u2642\ufe0f
p1735
aa(lp1736
Vman-tipping-hand-type-1-2
p1737
aV\U0001f481\U0001f3fb\u200d\u2642\ufe0f
p1738
aa(lp1739
Vman-tipping-hand-type-3
p1740
aV\U0001f481\U0001f3fc\u200d\u2642\ufe0f
p1741
aa(lp1742
Vman-tipping-hand-type-4
p1743
aV\U0001f481\U0001f3fd\u200d\u2642\ufe0f
p1744
aa(lp1745
Vman-tipping-hand-type-5
p1746
aV\U0001f481\U0001f3fe\u200d\u2642\ufe0f
p1747
aa(lp1748
Vman-tipping-hand-type-6
p1749
aV\U0001f481\U0001f3ff\u200d\u2642\ufe0f
p1750
aa(lp1751
Vwoman-tipping-hand
p1752
aV\U0001f481\u200d\u2640\ufe0f
p1753
aa(lp1754
Vwoman-tipping-hand-type-1-2
p1755
aV\U0001f481\U0001f3fb\u200d\u2640\ufe0f
p1756
aa(lp1757
Vwoman-tipping-hand-type-3
p1758
aV\U0001f481\U0001f3fc\u200d\u2640\ufe0f
p1759
aa(lp1760
Vwoman-tipping-hand-type-4
p1761
aV\U0001f481\U0001f3fd\u200d\u2640\ufe0f
p1762
aa(lp1763
Vwoman-tipping-hand-type-5
p1764
aV\U0001f481\U0001f3fe\u200d\u2640\ufe0f
p1765
aa(lp1766
Vwoman-tipping-hand-type-6
p1767
aV\U0001f481\U0001f3ff\u200d\u2640\ufe0f
p1768
aa(lp1769
Vhappy-person-raising-one-hand
p1770
aV\U0001f64b
p1771
aa(lp1772
Vhappy-person-raising-one-hand-type-1-2
p1773
aV\U0001f64b\U0001f3fb
p1774
aa(lp1775
Vhappy-person-raising-one-hand-type-3
p1776
aV\U0001f64b\U0001f3fc
p1777
aa(lp1778
Vhappy-person-raising-one-hand-type-4
p1779
aV\U0001f64b\U0001f3fd
p1780
aa(lp1781
Vhappy-person-raising-one-hand-type-5
p1782
aV\U0001f64b\U0001f3fe
p1783
aa(lp1784
Vhappy-person-raising-one-hand-type-6
p1785
aV\U0001f64b\U0001f3ff
p1786
aa(lp1787
Vman-raising-hand
p1788
aV\U0001f64b\u200d\u2642\ufe0f
p1789
aa(lp1790
Vman-raising-hand-type-1-2
p1791
aV\U0001f64b\U0001f3fb\u200d\u2642\ufe0f
p1792
aa(lp1793
Vman-raising-hand-type-3
p1794
aV\U0001f64b\U0001f3fc\u200d\u2642\ufe0f
p1795
aa(lp1796
Vman-raising-hand-type-4
p1797
aV\U0001f64b\U0001f3fd\u200d\u2642\ufe0f
p1798
aa(lp1799
Vman-raising-hand-type-5
p1800
aV\U0001f64b\U0001f3fe\u200d\u2642\ufe0f
p1801
aa(lp1802
Vman-raising-hand-type-6
p1803
aV\U0001f64b\U0001f3ff\u200d\u2642\ufe0f
p1804
aa(lp1805
Vwoman-raising-hand
p1806
aV\U0001f64b\u200d\u2640\ufe0f
p1807
aa(lp1808
Vwoman-raising-hand-type-1-2
p1809
aV\U0001f64b\U0001f3fb\u200d\u2640\ufe0f
p1810
aa(lp1811
Vwoman-raising-hand-type-3
p1812
aV\U0001f64b\U0001f3fc\u200d\u2640\ufe0f
p1813
aa(lp1814
Vwoman-raising-hand-type-4
p1815
aV\U0001f64b\U0001f3fd\u200d\u2640\ufe0f
p1816
aa(lp1817
Vwoman-raising-hand-type-5
p1818
aV\U0001f64b\U0001f3fe\u200d\u2640\ufe0f
p1819
aa(lp1820
Vwoman-raising-hand-type-6
p1821
aV\U0001f64b\U0001f3ff\u200d\u2640\ufe0f
p1822
aa(lp1823
Vperson-bowing-deeply
p1824
aV\U0001f647
p1825
aa(lp1826
Vperson-bowing-deeply-type-1-2
p1827
aV\U0001f647\U0001f3fb
p1828
aa(lp1829
Vperson-bowing-deeply-type-3
p1830
aV\U0001f647\U0001f3fc
p1831
aa(lp1832
Vperson-bowing-deeply-type-4
p1833
aV\U0001f647\U0001f3fd
p1834
aa(lp1835
Vperson-bowing-deeply-type-5
p1836
aV\U0001f647\U0001f3fe
p1837
aa(lp1838
Vperson-bowing-deeply-type-6
p1839
aV\U0001f647\U0001f3ff
p1840
aa(lp1841
Vman-bowing-deeply
p1842
aV\U0001f647\u200d\u2642\ufe0f
p1843
aa(lp1844
Vman-bowing-deeply-type-1-2
p1845
aV\U0001f647\U0001f3fb\u200d\u2642\ufe0f
p1846
aa(lp1847
Vman-bowing-deeply-type-3
p1848
aV\U0001f647\U0001f3fc\u200d\u2642\ufe0f
p1849
aa(lp1850
Vman-bowing-deeply-type-4
p1851
aV\U0001f647\U0001f3fd\u200d\u2642\ufe0f
p1852
aa(lp1853
Vman-bowing-deeply-type-5
p1854
aV\U0001f647\U0001f3fe\u200d\u2642\ufe0f
p1855
aa(lp1856
Vman-bowing-deeply-type-6
p1857
aV\U0001f647\U0001f3ff\u200d\u2642\ufe0f
p1858
aa(lp1859
Vwoman-bowing-deeply
p1860
aV\U0001f647\u200d\u2640\ufe0f
p1861
aa(lp1862
Vwoman-bowing-deeply-type-1-2
p1863
aV\U0001f647\U0001f3fb\u200d\u2640\ufe0f
p1864
aa(lp1865
Vwoman-bowing-deeply-type-3
p1866
aV\U0001f647\U0001f3fc\u200d\u2640\ufe0f
p1867
aa(lp1868
Vwoman-bowing-deeply-type-4
p1869
aV\U0001f647\U0001f3fd\u200d\u2640\ufe0f
p1870
aa(lp1871
Vwoman-bowing-deeply-type-5
p1872
aV\U0001f647\U0001f3fe\u200d\u2640\ufe0f
p1873
aa(lp1874
Vwoman-bowing-deeply-type-6
p1875
aV\U0001f647\U0001f3ff\u200d\u2640\ufe0f
p1876
aa(lp1877
Vface-palm
p1878
aV\U0001f926
p1879
aa(lp1880
Vface-palm-type-1-2
p1881
aV\U0001f926\U0001f3fb
p1882
aa(lp1883
Vface-palm-type-3
p1884
aV\U0001f926\U0001f3fc
p1885
aa(lp1886
Vface-palm-type-4
p1887
aV\U0001f926\U0001f3fd
p1888
aa(lp1889
Vface-palm-type-5
p1890
aV\U0001f926\U0001f3fe
p1891
aa(lp1892
Vface-palm-type-6
p1893
aV\U0001f926\U0001f3ff
p1894
aa(lp1895
Vman-facepalming
p1896
aV\U0001f926\u200d\u2642\ufe0f
p1897
aa(lp1898
Vman-facepalming-type-1-2
p1899
aV\U0001f926\U0001f3fb\u200d\u2642\ufe0f
p1900
aa(lp1901
Vman-facepalming-type-3
p1902
aV\U0001f926\U0001f3fc\u200d\u2642\ufe0f
p1903
aa(lp1904
Vman-facepalming-type-4
p1905
aV\U0001f926\U0001f3fd\u200d\u2642\ufe0f
p1906
aa(lp1907
Vman-facepalming-type-5
p1908
aV\U0001f926\U0001f3fe\u200d\u2642\ufe0f
p1909
aa(lp1910
Vman-facepalming-type-6
p1911
aV\U0001f926\U0001f3ff\u200d\u2642\ufe0f
p1912
aa(lp1913
Vwoman-facepalming
p1914
aV\U0001f926\u200d\u2640\ufe0f
p1915
aa(lp1916
Vwoman-facepalming-type-1-2
p1917
aV\U0001f926\U0001f3fb\u200d\u2640\ufe0f
p1918
aa(lp1919
Vwoman-facepalming-type-3
p1920
aV\U0001f926\U0001f3fc\u200d\u2640\ufe0f
p1921
aa(lp1922
Vwoman-facepalming-type-4
p1923
aV\U0001f926\U0001f3fd\u200d\u2640\ufe0f
p1924
aa(lp1925
Vwoman-facepalming-type-5
p1926
aV\U0001f926\U0001f3fe\u200d\u2640\ufe0f
p1927
aa(lp1928
Vwoman-facepalming-type-6
p1929
aV\U0001f926\U0001f3ff\u200d\u2640\ufe0f
p1930
aa(lp1931
Vshrug
p1932
aV\U0001f937
p1933
aa(lp1934
Vshrug-type-1-2
p1935
aV\U0001f937\U0001f3fb
p1936
aa(lp1937
Vshrug-type-3
p1938
aV\U0001f937\U0001f3fc
p1939
aa(lp1940
Vshrug-type-4
p1941
aV\U0001f937\U0001f3fd
p1942
aa(lp1943
Vshrug-type-5
p1944
aV\U0001f937\U0001f3fe
p1945
aa(lp1946
Vshrug-type-6
p1947
aV\U0001f937\U0001f3ff
p1948
aa(lp1949
Vman-shrugging
p1950
aV\U0001f937\u200d\u2642\ufe0f
p1951
aa(lp1952
Vman-shrugging-type-1-2
p1953
aV\U0001f937\U0001f3fb\u200d\u2642\ufe0f
p1954
aa(lp1955
Vman-shrugging-type-3
p1956
aV\U0001f937\U0001f3fc\u200d\u2642\ufe0f
p1957
aa(lp1958
Vman-shrugging-type-4
p1959
aV\U0001f937\U0001f3fd\u200d\u2642\ufe0f
p1960
aa(lp1961
Vman-shrugging-type-5
p1962
aV\U0001f937\U0001f3fe\u200d\u2642\ufe0f
p1963
aa(lp1964
Vman-shrugging-type-6
p1965
aV\U0001f937\U0001f3ff\u200d\u2642\ufe0f
p1966
aa(lp1967
Vwoman-shrugging
p1968
aV\U0001f937\u200d\u2640\ufe0f
p1969
aa(lp1970
Vwoman-shrugging-type-1-2
p1971
aV\U0001f937\U0001f3fb\u200d\u2640\ufe0f
p1972
aa(lp1973
Vwoman-shrugging-type-3
p1974
aV\U0001f937\U0001f3fc\u200d\u2640\ufe0f
p1975
aa(lp1976
Vwoman-shrugging-type-4
p1977
aV\U0001f937\U0001f3fd\u200d\u2640\ufe0f
p1978
aa(lp1979
Vwoman-shrugging-type-5
p1980
aV\U0001f937\U0001f3fe\u200d\u2640\ufe0f
p1981
aa(lp1982
Vwoman-shrugging-type-6
p1983
aV\U0001f937\U0001f3ff\u200d\u2640\ufe0f
p1984
aa(lp1985
Vface-massage
p1986
aV\U0001f486
p1987
aa(lp1988
Vface-massage-type-1-2
p1989
aV\U0001f486\U0001f3fb
p1990
aa(lp1991
Vface-massage-type-3
p1992
aV\U0001f486\U0001f3fc
p1993
aa(lp1994
Vface-massage-type-4
p1995
aV\U0001f486\U0001f3fd
p1996
aa(lp1997
Vface-massage-type-5
p1998
aV\U0001f486\U0001f3fe
p1999
aa(lp2000
Vface-massage-type-6
p2001
aV\U0001f486\U0001f3ff
p2002
aa(lp2003
Vman-getting-face-massage
p2004
aV\U0001f486\u200d\u2642\ufe0f
p2005
aa(lp2006
Vman-getting-face-massage-type-1-2
p2007
aV\U0001f486\U0001f3fb\u200d\u2642\ufe0f
p2008
aa(lp2009
Vman-getting-face-massage-type-3
p2010
aV\U0001f486\U0001f3fc\u200d\u2642\ufe0f
p2011
aa(lp2012
Vman-getting-face-massage-type-4
p2013
aV\U0001f486\U0001f3fd\u200d\u2642\ufe0f
p2014
aa(lp2015
Vman-getting-face-massage-type-5
p2016
aV\U0001f486\U0001f3fe\u200d\u2642\ufe0f
p2017
aa(lp2018
Vman-getting-face-massage-type-6
p2019
aV\U0001f486\U0001f3ff\u200d\u2642\ufe0f
p2020
aa(lp2021
Vwoman-getting-face-massage
p2022
aV\U0001f486\u200d\u2640\ufe0f
p2023
aa(lp2024
Vwoman-getting-face-massage-type-1-2
p2025
aV\U0001f486\U0001f3fb\u200d\u2640\ufe0f
p2026
aa(lp2027
Vwoman-getting-face-massage-type-3
p2028
aV\U0001f486\U0001f3fc\u200d\u2640\ufe0f
p2029
aa(lp2030
Vwoman-getting-face-massage-type-4
p2031
aV\U0001f486\U0001f3fd\u200d\u2640\ufe0f
p2032
aa(lp2033
Vwoman-getting-face-massage-type-5
p2034
aV\U0001f486\U0001f3fe\u200d\u2640\ufe0f
p2035
aa(lp2036
Vwoman-getting-face-massage-type-6
p2037
aV\U0001f486\U0001f3ff\u200d\u2640\ufe0f
p2038
aa(lp2039
Vhaircut
p2040
aV\U0001f487
p2041
aa(lp2042
Vhaircut-type-1-2
p2043
aV\U0001f487\U0001f3fb
p2044
aa(lp2045
Vhaircut-type-3
p2046
aV\U0001f487\U0001f3fc
p2047
aa(lp2048
Vhaircut-type-4
p2049
aV\U0001f487\U0001f3fd
p2050
aa(lp2051
Vhaircut-type-5
p2052
aV\U0001f487\U0001f3fe
p2053
aa(lp2054
Vhaircut-type-6
p2055
aV\U0001f487\U0001f3ff
p2056
aa(lp2057
Vman-getting-haircut
p2058
aV\U0001f487\u200d\u2642\ufe0f
p2059
aa(lp2060
Vman-getting-haircut-type-1-2
p2061
aV\U0001f487\U0001f3fb\u200d\u2642\ufe0f
p2062
aa(lp2063
Vman-getting-haircut-type-3
p2064
aV\U0001f487\U0001f3fc\u200d\u2642\ufe0f
p2065
aa(lp2066
Vman-getting-haircut-type-4
p2067
aV\U0001f487\U0001f3fd\u200d\u2642\ufe0f
p2068
aa(lp2069
Vman-getting-haircut-type-5
p2070
aV\U0001f487\U0001f3fe\u200d\u2642\ufe0f
p2071
aa(lp2072
Vman-getting-haircut-type-6
p2073
aV\U0001f487\U0001f3ff\u200d\u2642\ufe0f
p2074
aa(lp2075
Vwoman-getting-haircut
p2076
aV\U0001f487\u200d\u2640\ufe0f
p2077
aa(lp2078
Vwoman-getting-haircut-type-1-2
p2079
aV\U0001f487\U0001f3fb\u200d\u2640\ufe0f
p2080
aa(lp2081
Vwoman-getting-haircut-type-3
p2082
aV\U0001f487\U0001f3fc\u200d\u2640\ufe0f
p2083
aa(lp2084
Vwoman-getting-haircut-type-4
p2085
aV\U0001f487\U0001f3fd\u200d\u2640\ufe0f
p2086
aa(lp2087
Vwoman-getting-haircut-type-5
p2088
aV\U0001f487\U0001f3fe\u200d\u2640\ufe0f
p2089
aa(lp2090
Vwoman-getting-haircut-type-6
p2091
aV\U0001f487\U0001f3ff\u200d\u2640\ufe0f
p2092
aa(lp2093
Vpedestrian
p2094
aV\U0001f6b6
p2095
aa(lp2096
Vpedestrian-type-1-2
p2097
aV\U0001f6b6\U0001f3fb
p2098
aa(lp2099
Vpedestrian-type-3
p2100
aV\U0001f6b6\U0001f3fc
p2101
aa(lp2102
Vpedestrian-type-4
p2103
aV\U0001f6b6\U0001f3fd
p2104
aa(lp2105
Vpedestrian-type-5
p2106
aV\U0001f6b6\U0001f3fe
p2107
aa(lp2108
Vpedestrian-type-6
p2109
aV\U0001f6b6\U0001f3ff
p2110
aa(lp2111
Vman-walking
p2112
aV\U0001f6b6\u200d\u2642\ufe0f
p2113
aa(lp2114
Vman-walking-type-1-2
p2115
aV\U0001f6b6\U0001f3fb\u200d\u2642\ufe0f
p2116
aa(lp2117
Vman-walking-type-3
p2118
aV\U0001f6b6\U0001f3fc\u200d\u2642\ufe0f
p2119
aa(lp2120
Vman-walking-type-4
p2121
aV\U0001f6b6\U0001f3fd\u200d\u2642\ufe0f
p2122
aa(lp2123
Vman-walking-type-5
p2124
aV\U0001f6b6\U0001f3fe\u200d\u2642\ufe0f
p2125
aa(lp2126
Vman-walking-type-6
p2127
aV\U0001f6b6\U0001f3ff\u200d\u2642\ufe0f
p2128
aa(lp2129
Vwoman-walking
p2130
aV\U0001f6b6\u200d\u2640\ufe0f
p2131
aa(lp2132
Vwoman-walking-type-1-2
p2133
aV\U0001f6b6\U0001f3fb\u200d\u2640\ufe0f
p2134
aa(lp2135
Vwoman-walking-type-3
p2136
aV\U0001f6b6\U0001f3fc\u200d\u2640\ufe0f
p2137
aa(lp2138
Vwoman-walking-type-4
p2139
aV\U0001f6b6\U0001f3fd\u200d\u2640\ufe0f
p2140
aa(lp2141
Vwoman-walking-type-5
p2142
aV\U0001f6b6\U0001f3fe\u200d\u2640\ufe0f
p2143
aa(lp2144
Vwoman-walking-type-6
p2145
aV\U0001f6b6\U0001f3ff\u200d\u2640\ufe0f
p2146
aa(lp2147
Vrunner
p2148
aV\U0001f3c3
p2149
aa(lp2150
Vrunner-type-3
p2151
aV\U0001f3c3\U0001f3fc
p2152
aa(lp2153
Vrunner-type-4
p2154
aV\U0001f3c3\U0001f3fd
p2155
aa(lp2156
Vrunner-type-5
p2157
aV\U0001f3c3\U0001f3fe
p2158
aa(lp2159
Vrunner-type-6
p2160
aV\U0001f3c3\U0001f3ff
p2161
aa(lp2162
Vman-running
p2163
aV\U0001f3c3\u200d\u2642\ufe0f
p2164
aa(lp2165
Vman-running-type-1-2
p2166
aV\U0001f3c3\U0001f3fb\u200d\u2642\ufe0f
p2167
aa(lp2168
Vman-running-type-3
p2169
aV\U0001f3c3\U0001f3fc\u200d\u2642\ufe0f
p2170
aa(lp2171
Vman-running-type-4
p2172
aV\U0001f3c3\U0001f3fd\u200d\u2642\ufe0f
p2173
aa(lp2174
Vman-running-type-5
p2175
aV\U0001f3c3\U0001f3fe\u200d\u2642\ufe0f
p2176
aa(lp2177
Vman-running-type-6
p2178
aV\U0001f3c3\U0001f3ff\u200d\u2642\ufe0f
p2179
aa(lp2180
Vwoman-running
p2181
aV\U0001f3c3\u200d\u2640\ufe0f
p2182
aa(lp2183
Vwoman-running-type-1-2
p2184
aV\U0001f3c3\U0001f3fb\u200d\u2640\ufe0f
p2185
aa(lp2186
Vwoman-running-type-3
p2187
aV\U0001f3c3\U0001f3fc\u200d\u2640\ufe0f
p2188
aa(lp2189
Vwoman-running-type-4
p2190
aV\U0001f3c3\U0001f3fd\u200d\u2640\ufe0f
p2191
aa(lp2192
Vwoman-running-type-5
p2193
aV\U0001f3c3\U0001f3fe\u200d\u2640\ufe0f
p2194
aa(lp2195
Vwoman-running-type-6
p2196
aV\U0001f3c3\U0001f3ff\u200d\u2640\ufe0f
p2197
aa(lp2198
Vdancer
p2199
aV\U0001f483
p2200
aa(lp2201
Vdancer-type-1-2
p2202
aV\U0001f483\U0001f3fb
p2203
aa(lp2204
Vdancer-type-3
p2205
aV\U0001f483\U0001f3fc
p2206
aa(lp2207
Vdancer-type-4
p2208
aV\U0001f483\U0001f3fd
p2209
aa(lp2210
Vdancer-type-5
p2211
aV\U0001f483\U0001f3fe
p2212
aa(lp2213
Vdancer-type-6
p2214
aV\U0001f483\U0001f3ff
p2215
aa(lp2216
Vman-dancing
p2217
aV\U0001f57a
p2218
aa(lp2219
Vman-dancing-type-1-2
p2220
aV\U0001f57a\U0001f3fb
p2221
aa(lp2222
Vman-dancing-type-3
p2223
aV\U0001f57a\U0001f3fc
p2224
aa(lp2225
Vman-dancing-type-4
p2226
aV\U0001f57a\U0001f3fd
p2227
aa(lp2228
Vman-dancing-type-5
p2229
aV\U0001f57a\U0001f3fe
p2230
aa(lp2231
Vman-dancing-type-6
p2232
aV\U0001f57a\U0001f3ff
p2233
aa(lp2234
Vwoman-with-bunny-ears
p2235
aV\U0001f46f
p2236
aa(lp2237
Vmen-with-bunny-ears-partying
p2238
aV\U0001f46f\u200d\u2642\ufe0f
p2239
aa(lp2240
Vwomen-with-bunny-ears-partying
p2241
aV\U0001f46f\u200d\u2640\ufe0f
p2242
aa(lp2243
Vbath
p2244
aV\U0001f6c0
p2245
aa(lp2246
Vbath-type-1-2
p2247
aV\U0001f6c0\U0001f3fb
p2248
aa(lp2249
Vbath-type-3
p2250
aV\U0001f6c0\U0001f3fc
p2251
aa(lp2252
Vbath-type-4
p2253
aV\U0001f6c0\U0001f3fd
p2254
aa(lp2255
Vbath-type-5
p2256
aV\U0001f6c0\U0001f3fe
p2257
aa(lp2258
Vbath-type-6
p2259
aV\U0001f6c0\U0001f3ff
p2260
aa(lp2261
Vsleeping-accommodation
p2262
aV\U0001f6cc
p2263
aa(lp2264
Vman-in-business-suit-levitating
p2265
aV\U0001f574
p2266
aa(lp2267
Vman-in-business-suit-levitating-type-1-2
p2268
aV\U0001f574\U0001f3fb
p2269
aa(lp2270
Vman-in-business-suit-levitating-type-3
p2271
aV\U0001f574\U0001f3fc
p2272
aa(lp2273
Vman-in-business-suit-levitating-type-4
p2274
aV\U0001f574\U0001f3fd
p2275
aa(lp2276
Vman-in-business-suit-levitating-type-5
p2277
aV\U0001f574\U0001f3fe
p2278
aa(lp2279
Vman-in-business-suit-levitating-type-6
p2280
aV\U0001f574\U0001f3ff
p2281
aa(lp2282
Vspeaking-head-in-silhouette
p2283
aV\U0001f5e3
p2284
aa(lp2285
Vbust-in-silhouette
p2286
aV\U0001f464
p2287
aa(lp2288
Vbusts-in-silhouette
p2289
aV\U0001f465
p2290
aa(lp2291
Vfencer
p2292
aV\U0001f93a
p2293
aa(lp2294
Vhorse-racing
p2295
aV\U0001f3c7
p2296
aa(lp2297
Vhorse-racing-type-1-2
p2298
aV\U0001f3c7\U0001f3fb
p2299
aa(lp2300
Vhorse-racing-type-3
p2301
aV\U0001f3c7\U0001f3fc
p2302
aa(lp2303
Vhorse-racing-type-4
p2304
aV\U0001f3c7\U0001f3fd
p2305
aa(lp2306
Vhorse-racing-type-5
p2307
aV\U0001f3c7\U0001f3fe
p2308
aa(lp2309
Vhorse-racing-type-6
p2310
aV\U0001f3c7\U0001f3ff
p2311
aa(lp2312
Vskier
p2313
aV\u26f7
p2314
aa(lp2315
Vsnowboarder
p2316
aV\U0001f3c2
p2317
aa(lp2318
Vgolfer
p2319
aV\U0001f3cc
p2320
aa(lp2321
Vgolfer-type-1-2
p2322
aV\U0001f3cc\U0001f3fb
p2323
aa(lp2324
Vgolfer-type-3
p2325
aV\U0001f3cc\U0001f3fc
p2326
aa(lp2327
Vgolfer-type-4
p2328
aV\U0001f3cc\U0001f3fd
p2329
aa(lp2330
Vgolfer-type-5
p2331
aV\U0001f3cc\U0001f3fe
p2332
aa(lp2333
Vgolfer-type-6
p2334
aV\U0001f3cc\U0001f3ff
p2335
aa(lp2336
Vman-golfing
p2337
aV\U0001f3cc\ufe0f\u200d\u2642\ufe0f
p2338
aa(lp2339
Vman-golfing-type-1-2
p2340
aV\U0001f3cc\U0001f3fb\u200d\u2642\ufe0f
p2341
aa(lp2342
Vman-golfing-type-3
p2343
aV\U0001f3cc\U0001f3fc\u200d\u2642\ufe0f
p2344
aa(lp2345
Vman-golfing-type-4
p2346
aV\U0001f3cc\U0001f3fd\u200d\u2642\ufe0f
p2347
aa(lp2348
Vman-golfing-type-5
p2349
aV\U0001f3cc\U0001f3fe\u200d\u2642\ufe0f
p2350
aa(lp2351
Vman-golfing-type-6
p2352
aV\U0001f3cc\U0001f3ff\u200d\u2642\ufe0f
p2353
aa(lp2354
Vwoman-golfing
p2355
aV\U0001f3cc\ufe0f\u200d\u2640\ufe0f
p2356
aa(lp2357
Vwoman-golfing-type-1-2
p2358
aV\U0001f3cc\U0001f3fb\u200d\u2640\ufe0f
p2359
aa(lp2360
Vwoman-golfing-type-3
p2361
aV\U0001f3cc\U0001f3fc\u200d\u2640\ufe0f
p2362
aa(lp2363
Vwoman-golfing-type-4
p2364
aV\U0001f3cc\U0001f3fd\u200d\u2640\ufe0f
p2365
aa(lp2366
Vwoman-golfing-type-5
p2367
aV\U0001f3cc\U0001f3fe\u200d\u2640\ufe0f
p2368
aa(lp2369
Vwoman-golfing-type-6
p2370
aV\U0001f3cc\U0001f3ff\u200d\u2640\ufe0f
p2371
aa(lp2372
Vsurfer
p2373
aV\U0001f3c4
p2374
aa(lp2375
Vsurfer-type-1-2
p2376
aV\U0001f3c4\U0001f3fb
p2377
aa(lp2378
Vsurfer-type-3
p2379
aV\U0001f3c4\U0001f3fc
p2380
aa(lp2381
Vsurfer-type-4
p2382
aV\U0001f3c4\U0001f3fd
p2383
aa(lp2384
Vsurfer-type-5
p2385
aV\U0001f3c4\U0001f3fe
p2386
aa(lp2387
Vsurfer-type-6
p2388
aV\U0001f3c4\U0001f3ff
p2389
aa(lp2390
Vman-surfing
p2391
aV\U0001f3c4\u200d\u2642\ufe0f
p2392
aa(lp2393
Vman-surfing-type-1-2
p2394
aV\U0001f3c4\U0001f3fb\u200d\u2642\ufe0f
p2395
aa(lp2396
Vman-surfing-type-3
p2397
aV\U0001f3c4\U0001f3fc\u200d\u2642\ufe0f
p2398
aa(lp2399
Vman-surfing-type-4
p2400
aV\U0001f3c4\U0001f3fd\u200d\u2642\ufe0f
p2401
aa(lp2402
Vman-surfing-type-5
p2403
aV\U0001f3c4\U0001f3fe\u200d\u2642\ufe0f
p2404
aa(lp2405
Vman-surfing-type-6
p2406
aV\U0001f3c4\U0001f3ff\u200d\u2642\ufe0f
p2407
aa(lp2408
Vwoman-surfing
p2409
aV\U0001f3c4\u200d\u2640\ufe0f
p2410
aa(lp2411
Vwoman-surfing-type-1-2
p2412
aV\U0001f3c4\U0001f3fb\u200d\u2640\ufe0f
p2413
aa(lp2414
Vwoman-surfing-type-3
p2415
aV\U0001f3c4\U0001f3fc\u200d\u2640\ufe0f
p2416
aa(lp2417
Vwoman-surfing-type-4
p2418
aV\U0001f3c4\U0001f3fd\u200d\u2640\ufe0f
p2419
aa(lp2420
Vwoman-surfing-type-5
p2421
aV\U0001f3c4\U0001f3fe\u200d\u2640\ufe0f
p2422
aa(lp2423
Vwoman-surfing-type-6
p2424
aV\U0001f3c4\U0001f3ff\u200d\u2640\ufe0f
p2425
aa(lp2426
Vrowboat
p2427
aV\U0001f6a3
p2428
aa(lp2429
Vrowboat-type-1-2
p2430
aV\U0001f6a3\U0001f3fb
p2431
aa(lp2432
Vrowboat-type-3
p2433
aV\U0001f6a3\U0001f3fc
p2434
aa(lp2435
Vrowboat-type-4
p2436
aV\U0001f6a3\U0001f3fd
p2437
aa(lp2438
Vrowboat-type-5
p2439
aV\U0001f6a3\U0001f3fe
p2440
aa(lp2441
Vrowboat-type-6
p2442
aV\U0001f6a3\U0001f3ff
p2443
aa(lp2444
Vman-rowing-boat
p2445
aV\U0001f6a3\u200d\u2642\ufe0f
p2446
aa(lp2447
Vman-rowing-boat-type-1-2
p2448
aV\U0001f6a3\U0001f3fb\u200d\u2642\ufe0f
p2449
aa(lp2450
Vman-rowing-boat-type-3
p2451
aV\U0001f6a3\U0001f3fc\u200d\u2642\ufe0f
p2452
aa(lp2453
Vman-rowing-boat-type-4
p2454
aV\U0001f6a3\U0001f3fd\u200d\u2642\ufe0f
p2455
aa(lp2456
Vman-rowing-boat-type-5
p2457
aV\U0001f6a3\U0001f3fe\u200d\u2642\ufe0f
p2458
aa(lp2459
Vman-rowing-boat-type-6
p2460
aV\U0001f6a3\U0001f3ff\u200d\u2642\ufe0f
p2461
aa(lp2462
Vwoman-rowing-boat
p2463
aV\U0001f6a3\u200d\u2640\ufe0f
p2464
aa(lp2465
Vwoman-rowing-boat-type-1-2
p2466
aV\U0001f6a3\U0001f3fb\u200d\u2640\ufe0f
p2467
aa(lp2468
Vwoman-rowing-boat-type-3
p2469
aV\U0001f6a3\U0001f3fc\u200d\u2640\ufe0f
p2470
aa(lp2471
Vwoman-rowing-boat-type-4
p2472
aV\U0001f6a3\U0001f3fd\u200d\u2640\ufe0f
p2473
aa(lp2474
Vwoman-rowing-boat-type-5
p2475
aV\U0001f6a3\U0001f3fe\u200d\u2640\ufe0f
p2476
aa(lp2477
Vwoman-rowing-boat-type-6
p2478
aV\U0001f6a3\U0001f3ff\u200d\u2640\ufe0f
p2479
aa(lp2480
Vswimmer
p2481
aV\U0001f3ca
p2482
aa(lp2483
Vswimmer-type-1-2
p2484
aV\U0001f3ca\U0001f3fb
p2485
aa(lp2486
Vswimmer-type-3
p2487
aV\U0001f3ca\U0001f3fc
p2488
aa(lp2489
Vswimmer-type-4
p2490
aV\U0001f3ca\U0001f3fd
p2491
aa(lp2492
Vswimmer-type-5
p2493
aV\U0001f3ca\U0001f3fe
p2494
aa(lp2495
Vswimmer-type-6
p2496
aV\U0001f3ca\U0001f3ff
p2497
aa(lp2498
Vman-swimming
p2499
aV\U0001f3ca\u200d\u2642\ufe0f
p2500
aa(lp2501
Vman-swimming-type-1-2
p2502
aV\U0001f3ca\U0001f3fb\u200d\u2642\ufe0f
p2503
aa(lp2504
Vman-swimming-type-3
p2505
aV\U0001f3ca\U0001f3fc\u200d\u2642\ufe0f
p2506
aa(lp2507
Vman-swimming-type-4
p2508
aV\U0001f3ca\U0001f3fd\u200d\u2642\ufe0f
p2509
aa(lp2510
Vman-swimming-type-5
p2511
aV\U0001f3ca\U0001f3fe\u200d\u2642\ufe0f
p2512
aa(lp2513
Vman-swimming-type-6
p2514
aV\U0001f3ca\U0001f3ff\u200d\u2642\ufe0f
p2515
aa(lp2516
Vwoman-swimming
p2517
aV\U0001f3ca\u200d\u2640\ufe0f
p2518
aa(lp2519
Vwoman-swimming-type-1-2
p2520
aV\U0001f3ca\U0001f3fb\u200d\u2640\ufe0f
p2521
aa(lp2522
Vwoman-swimming-type-3
p2523
aV\U0001f3ca\U0001f3fc\u200d\u2640\ufe0f
p2524
aa(lp2525
Vwoman-swimming-type-4
p2526
aV\U0001f3ca\U0001f3fd\u200d\u2640\ufe0f
p2527
aa(lp2528
Vwoman-swimming-type-5
p2529
aV\U0001f3ca\U0001f3fe\u200d\u2640\ufe0f
p2530
aa(lp2531
Vwoman-swimming-type-6
p2532
aV\U0001f3ca\U0001f3ff\u200d\u2640\ufe0f
p2533
aa(lp2534
Vperson-with-ball
p2535
aV\u26f9
p2536
aa(lp2537
Vperson-with-ball-type-1-2
p2538
aV\u26f9\U0001f3fb
p2539
aa(lp2540
Vperson-with-ball-type-3
p2541
aV\u26f9\U0001f3fc
p2542
aa(lp2543
Vperson-with-ball-type-4
p2544
aV\u26f9\U0001f3fd
p2545
aa(lp2546
Vperson-with-ball-type-5
p2547
aV\u26f9\U0001f3fe
p2548
aa(lp2549
Vperson-with-ball-type-6
p2550
aV\u26f9\U0001f3ff
p2551
aa(lp2552
Vman-with-ball
p2553
aV\u26f9\ufe0f\u200d\u2642\ufe0f
p2554
aa(lp2555
Vman-with-ball-type-1-2
p2556
aV\u26f9\U0001f3fb\u200d\u2642\ufe0f
p2557
aa(lp2558
Vman-with-ball-type-3
p2559
aV\u26f9\U0001f3fc\u200d\u2642\ufe0f
p2560
aa(lp2561
Vman-with-ball-type-4
p2562
aV\u26f9\U0001f3fd\u200d\u2642\ufe0f
p2563
aa(lp2564
Vman-with-ball-type-5
p2565
aV\u26f9\U0001f3fe\u200d\u2642\ufe0f
p2566
aa(lp2567
Vman-with-ball-type-6
p2568
aV\u26f9\U0001f3ff\u200d\u2642\ufe0f
p2569
aa(lp2570
Vwoman-with-ball
p2571
aV\u26f9\ufe0f\u200d\u2640\ufe0f
p2572
aa(lp2573
Vwoman-with-ball-type-1-2
p2574
aV\u26f9\U0001f3fb\u200d\u2640\ufe0f
p2575
aa(lp2576
Vwoman-with-ball-type-3
p2577
aV\u26f9\U0001f3fc\u200d\u2640\ufe0f
p2578
aa(lp2579
Vwoman-with-ball-type-4
p2580
aV\u26f9\U0001f3fd\u200d\u2640\ufe0f
p2581
aa(lp2582
Vwoman-with-ball-type-5
p2583
aV\u26f9\U0001f3fe\u200d\u2640\ufe0f
p2584
aa(lp2585
Vwoman-with-ball-type-6
p2586
aV\u26f9\U0001f3ff\u200d\u2640\ufe0f
p2587
aa(lp2588
Vweight-lifter
p2589
aV\U0001f3cb
p2590
aa(lp2591
Vweight-lifter-type-1-2
p2592
aV\U0001f3cb\U0001f3fb
p2593
aa(lp2594
Vweight-lifter-type-3
p2595
aV\U0001f3cb\U0001f3fc
p2596
aa(lp2597
Vweight-lifter-type-4
p2598
aV\U0001f3cb\U0001f3fd
p2599
aa(lp2600
Vweight-lifter-type-5
p2601
aV\U0001f3cb\U0001f3fe
p2602
aa(lp2603
Vweight-lifter-type-6
p2604
aV\U0001f3cb\U0001f3ff
p2605
aa(lp2606
Vman-weight-lifting
p2607
aV\U0001f3cb\ufe0f\u200d\u2642\ufe0f
p2608
aa(lp2609
Vman-weight-lifting-type-1-2
p2610
aV\U0001f3cb\U0001f3fb\u200d\u2642\ufe0f
p2611
aa(lp2612
Vman-weight-lifting-type-3
p2613
aV\U0001f3cb\U0001f3fc\u200d\u2642\ufe0f
p2614
aa(lp2615
Vman-weight-lifting-type-4
p2616
aV\U0001f3cb\U0001f3fd\u200d\u2642\ufe0f
p2617
aa(lp2618
Vman-weight-lifting-type-5
p2619
aV\U0001f3cb\U0001f3fe\u200d\u2642\ufe0f
p2620
aa(lp2621
Vman-weight-lifting-type-6
p2622
aV\U0001f3cb\U0001f3ff\u200d\u2642\ufe0f
p2623
aa(lp2624
Vwoman-weight-lifting
p2625
aV\U0001f3cb\ufe0f\u200d\u2640\ufe0f
p2626
aa(lp2627
Vwoman-weight-lifting-type-1-2
p2628
aV\U0001f3cb\U0001f3fb\u200d\u2640\ufe0f
p2629
aa(lp2630
Vwoman-weight-lifting-type-3
p2631
aV\U0001f3cb\U0001f3fc\u200d\u2640\ufe0f
p2632
aa(lp2633
Vwoman-weight-lifting-type-4
p2634
aV\U0001f3cb\U0001f3fd\u200d\u2640\ufe0f
p2635
aa(lp2636
Vwoman-weight-lifting-type-5
p2637
aV\U0001f3cb\U0001f3fe\u200d\u2640\ufe0f
p2638
aa(lp2639
Vwoman-weight-lifting-type-6
p2640
aV\U0001f3cb\U0001f3ff\u200d\u2640\ufe0f
p2641
aa(lp2642
Vbicyclist
p2643
aV\U0001f6b4
p2644
aa(lp2645
Vbicyclist-type-1-2
p2646
aV\U0001f6b4\U0001f3fb
p2647
aa(lp2648
Vbicyclist-type-3
p2649
aV\U0001f6b4\U0001f3fc
p2650
aa(lp2651
Vbicyclist-type-4
p2652
aV\U0001f6b4\U0001f3fd
p2653
aa(lp2654
Vbicyclist-type-5
p2655
aV\U0001f6b4\U0001f3fe
p2656
aa(lp2657
Vbicyclist-type-6
p2658
aV\U0001f6b4\U0001f3ff
p2659
aa(lp2660
Vman-biking
p2661
aV\U0001f6b4\u200d\u2642\ufe0f
p2662
aa(lp2663
Vman-biking-type-1-2
p2664
aV\U0001f6b4\U0001f3fb\u200d\u2642\ufe0f
p2665
aa(lp2666
Vman-biking-type-3
p2667
aV\U0001f6b4\U0001f3fc\u200d\u2642\ufe0f
p2668
aa(lp2669
Vman-biking-type-4
p2670
aV\U0001f6b4\U0001f3fd\u200d\u2642\ufe0f
p2671
aa(lp2672
Vman-biking-type-5
p2673
aV\U0001f6b4\U0001f3fe\u200d\u2642\ufe0f
p2674
aa(lp2675
Vman-biking-type-6
p2676
aV\U0001f6b4\U0001f3ff\u200d\u2642\ufe0f
p2677
aa(lp2678
Vwoman-biking
p2679
aV\U0001f6b4\u200d\u2640\ufe0f
p2680
aa(lp2681
Vwoman-biking-type-1-2
p2682
aV\U0001f6b4\U0001f3fb\u200d\u2640\ufe0f
p2683
aa(lp2684
Vwoman-biking-type-3
p2685
aV\U0001f6b4\U0001f3fc\u200d\u2640\ufe0f
p2686
aa(lp2687
Vwoman-biking-type-4
p2688
aV\U0001f6b4\U0001f3fd\u200d\u2640\ufe0f
p2689
aa(lp2690
Vwoman-biking-type-5
p2691
aV\U0001f6b4\U0001f3fe\u200d\u2640\ufe0f
p2692
aa(lp2693
Vwoman-biking-type-6
p2694
aV\U0001f6b4\U0001f3ff\u200d\u2640\ufe0f
p2695
aa(lp2696
Vmountain-bicyclist
p2697
aV\U0001f6b5
p2698
aa(lp2699
Vmountain-bicyclist-type-1-2
p2700
aV\U0001f6b5\U0001f3fb
p2701
aa(lp2702
Vmountain-bicyclist-type-3
p2703
aV\U0001f6b5\U0001f3fc
p2704
aa(lp2705
Vmountain-bicyclist-type-4
p2706
aV\U0001f6b5\U0001f3fd
p2707
aa(lp2708
Vmountain-bicyclist-type-5
p2709
aV\U0001f6b5\U0001f3fe
p2710
aa(lp2711
Vmountain-bicyclist-type-6
p2712
aV\U0001f6b5\U0001f3ff
p2713
aa(lp2714
Vman-mountain-biking
p2715
aV\U0001f6b5\u200d\u2642\ufe0f
p2716
aa(lp2717
Vman-mountain-biking-type-1-2
p2718
aV\U0001f6b5\U0001f3fb\u200d\u2642\ufe0f
p2719
aa(lp2720
Vman-mountain-biking-type-3
p2721
aV\U0001f6b5\U0001f3fc\u200d\u2642\ufe0f
p2722
aa(lp2723
Vman-mountain-biking-type-4
p2724
aV\U0001f6b5\U0001f3fd\u200d\u2642\ufe0f
p2725
aa(lp2726
Vman-mountain-biking-type-5
p2727
aV\U0001f6b5\U0001f3fe\u200d\u2642\ufe0f
p2728
aa(lp2729
Vman-mountain-biking-type-6
p2730
aV\U0001f6b5\U0001f3ff\u200d\u2642\ufe0f
p2731
aa(lp2732
Vwoman-mountain-biking
p2733
aV\U0001f6b5\u200d\u2640\ufe0f
p2734
aa(lp2735
Vwoman-mountain-biking-type-1-2
p2736
aV\U0001f6b5\U0001f3fb\u200d\u2640\ufe0f
p2737
aa(lp2738
Vwoman-mountain-biking-type-3
p2739
aV\U0001f6b5\U0001f3fc\u200d\u2640\ufe0f
p2740
aa(lp2741
Vwoman-mountain-biking-type-4
p2742
aV\U0001f6b5\U0001f3fd\u200d\u2640\ufe0f
p2743
aa(lp2744
Vwoman-mountain-biking-type-5
p2745
aV\U0001f6b5\U0001f3fe\u200d\u2640\ufe0f
p2746
aa(lp2747
Vwoman-mountain-biking-type-6
p2748
aV\U0001f6b5\U0001f3ff\u200d\u2640\ufe0f
p2749
aa(lp2750
Vracing-car
p2751
aV\U0001f3ce
p2752
aa(lp2753
Vracing-motorcycle
p2754
aV\U0001f3cd
p2755
aa(lp2756
Vperson-doing-cartwheel
p2757
aV\U0001f938
p2758
aa(lp2759
Vperson-doing-cartwheel-type-1-2
p2760
aV\U0001f938\U0001f3fb
p2761
aa(lp2762
Vperson-doing-cartwheel-type-3
p2763
aV\U0001f938\U0001f3fc
p2764
aa(lp2765
Vperson-doing-cartwheel-type-4
p2766
aV\U0001f938\U0001f3fd
p2767
aa(lp2768
Vperson-doing-cartwheel-type-5
p2769
aV\U0001f938\U0001f3fe
p2770
aa(lp2771
Vperson-doing-cartwheel-type-6
p2772
aV\U0001f938\U0001f3ff
p2773
aa(lp2774
Vman-doing-cartwheel
p2775
aV\U0001f938\u200d\u2642\ufe0f
p2776
aa(lp2777
Vman-doing-cartwheel-type-1-2
p2778
aV\U0001f938\U0001f3fb\u200d\u2642\ufe0f
p2779
aa(lp2780
Vman-doing-cartwheel-type-3
p2781
aV\U0001f938\U0001f3fc\u200d\u2642\ufe0f
p2782
aa(lp2783
Vman-doing-cartwheel-type-4
p2784
aV\U0001f938\U0001f3fd\u200d\u2642\ufe0f
p2785
aa(lp2786
Vman-doing-cartwheel-type-5
p2787
aV\U0001f938\U0001f3fe\u200d\u2642\ufe0f
p2788
aa(lp2789
Vman-doing-cartwheel-type-6
p2790
aV\U0001f938\U0001f3ff\u200d\u2642\ufe0f
p2791
aa(lp2792
Vwoman-doing-cartwheel
p2793
aV\U0001f938\u200d\u2640\ufe0f
p2794
aa(lp2795
Vwoman-doing-cartwheel-type-1-2
p2796
aV\U0001f938\U0001f3fb\u200d\u2640\ufe0f
p2797
aa(lp2798
Vwoman-doing-cartwheel-type-3
p2799
aV\U0001f938\U0001f3fc\u200d\u2640\ufe0f
p2800
aa(lp2801
Vwoman-doing-cartwheel-type-4
p2802
aV\U0001f938\U0001f3fd\u200d\u2640\ufe0f
p2803
aa(lp2804
Vwoman-doing-cartwheel-type-5
p2805
aV\U0001f938\U0001f3fe\u200d\u2640\ufe0f
p2806
aa(lp2807
Vwoman-doing-cartwheel-type-6
p2808
aV\U0001f938\U0001f3ff\u200d\u2640\ufe0f
p2809
aa(lp2810
Vwrestlers
p2811
aV\U0001f93c
p2812
aa(lp2813
Vmen-wrestling
p2814
aV\U0001f93c\u200d\u2642\ufe0f
p2815
aa(lp2816
Vwomen-wrestling
p2817
aV\U0001f93c\u200d\u2640\ufe0f
p2818
aa(lp2819
Vwater-polo
p2820
aV\U0001f93d
p2821
aa(lp2822
Vwater-polo-type-1-2
p2823
aV\U0001f93d\U0001f3fb
p2824
aa(lp2825
Vwater-polo-type-3
p2826
aV\U0001f93d\U0001f3fc
p2827
aa(lp2828
Vwater-polo-type-4
p2829
aV\U0001f93d\U0001f3fd
p2830
aa(lp2831
Vwater-polo-type-5
p2832
aV\U0001f93d\U0001f3fe
p2833
aa(lp2834
Vwater-polo-type-6
p2835
aV\U0001f93d\U0001f3ff
p2836
aa(lp2837
Vman-playing-water-polo
p2838
aV\U0001f93d\u200d\u2642\ufe0f
p2839
aa(lp2840
Vman-playing-water-polo-type-1-2
p2841
aV\U0001f93d\U0001f3fb\u200d\u2642\ufe0f
p2842
aa(lp2843
Vman-playing-water-polo-type-3
p2844
aV\U0001f93d\U0001f3fc\u200d\u2642\ufe0f
p2845
aa(lp2846
Vman-playing-water-polo-type-4
p2847
aV\U0001f93d\U0001f3fd\u200d\u2642\ufe0f
p2848
aa(lp2849
Vman-playing-water-polo-type-5
p2850
aV\U0001f93d\U0001f3fe\u200d\u2642\ufe0f
p2851
aa(lp2852
Vman-playing-water-polo-type-6
p2853
aV\U0001f93d\U0001f3ff\u200d\u2642\ufe0f
p2854
aa(lp2855
Vwoman-playing-water-polo
p2856
aV\U0001f93d\u200d\u2640\ufe0f
p2857
aa(lp2858
Vwoman-playing-water-polo-type-1-2
p2859
aV\U0001f93d\U0001f3fb\u200d\u2640\ufe0f
p2860
aa(lp2861
Vwoman-playing-water-polo-type-3
p2862
aV\U0001f93d\U0001f3fc\u200d\u2640\ufe0f
p2863
aa(lp2864
Vwoman-playing-water-polo-type-4
p2865
aV\U0001f93d\U0001f3fd\u200d\u2640\ufe0f
p2866
aa(lp2867
Vwoman-playing-water-polo-type-5
p2868
aV\U0001f93d\U0001f3fe\u200d\u2640\ufe0f
p2869
aa(lp2870
Vwoman-playing-water-polo-type-6
p2871
aV\U0001f93d\U0001f3ff\u200d\u2640\ufe0f
p2872
aa(lp2873
Vhandball
p2874
aV\U0001f93e
p2875
aa(lp2876
Vhandball-type-1-2
p2877
aV\U0001f93e\U0001f3fb
p2878
aa(lp2879
Vhandball-type-3
p2880
aV\U0001f93e\U0001f3fc
p2881
aa(lp2882
Vhandball-type-4
p2883
aV\U0001f93e\U0001f3fd
p2884
aa(lp2885
Vhandball-type-5
p2886
aV\U0001f93e\U0001f3fe
p2887
aa(lp2888
Vhandball-type-6
p2889
aV\U0001f93e\U0001f3ff
p2890
aa(lp2891
Vman-playing-handball
p2892
aV\U0001f93e\u200d\u2642\ufe0f
p2893
aa(lp2894
Vman-playing-handball-type-1-2
p2895
aV\U0001f93e\U0001f3fb\u200d\u2642\ufe0f
p2896
aa(lp2897
Vman-playing-handball-type-3
p2898
aV\U0001f93e\U0001f3fc\u200d\u2642\ufe0f
p2899
aa(lp2900
Vman-playing-handball-type-4
p2901
aV\U0001f93e\U0001f3fd\u200d\u2642\ufe0f
p2902
aa(lp2903
Vman-playing-handball-type-5
p2904
aV\U0001f93e\U0001f3fe\u200d\u2642\ufe0f
p2905
aa(lp2906
Vman-playing-handball-type-6
p2907
aV\U0001f93e\U0001f3ff\u200d\u2642\ufe0f
p2908
aa(lp2909
Vwoman-playing-handball
p2910
aV\U0001f93e\u200d\u2640\ufe0f
p2911
aa(lp2912
Vwoman-playing-handball-type-1-2
p2913
aV\U0001f93e\U0001f3fb\u200d\u2640\ufe0f
p2914
aa(lp2915
Vwoman-playing-handball-type-3
p2916
aV\U0001f93e\U0001f3fc\u200d\u2640\ufe0f
p2917
aa(lp2918
Vwoman-playing-handball-type-4
p2919
aV\U0001f93e\U0001f3fd\u200d\u2640\ufe0f
p2920
aa(lp2921
Vwoman-playing-handball-type-5
p2922
aV\U0001f93e\U0001f3fe\u200d\u2640\ufe0f
p2923
aa(lp2924
Vwoman-playing-handball-type-6
p2925
aV\U0001f93e\U0001f3ff\u200d\u2640\ufe0f
p2926
aa(lp2927
Vjuggling
p2928
aV\U0001f939
p2929
aa(lp2930
Vjuggling-type-1-2
p2931
aV\U0001f939\U0001f3fb
p2932
aa(lp2933
Vjuggling-type-3
p2934
aV\U0001f939\U0001f3fc
p2935
aa(lp2936
Vjuggling-type-4
p2937
aV\U0001f939\U0001f3fd
p2938
aa(lp2939
Vjuggling-type-5
p2940
aV\U0001f939\U0001f3fe
p2941
aa(lp2942
Vjuggling-type-6
p2943
aV\U0001f939\U0001f3ff
p2944
aa(lp2945
Vman-juggling
p2946
aV\U0001f939\u200d\u2642\ufe0f
p2947
aa(lp2948
Vman-juggling-type-1-2
p2949
aV\U0001f939\U0001f3fb\u200d\u2642\ufe0f
p2950
aa(lp2951
Vman-juggling-type-3
p2952
aV\U0001f939\U0001f3fc\u200d\u2642\ufe0f
p2953
aa(lp2954
Vman-juggling-type-4
p2955
aV\U0001f939\U0001f3fd\u200d\u2642\ufe0f
p2956
aa(lp2957
Vman-juggling-type-5
p2958
aV\U0001f939\U0001f3fe\u200d\u2642\ufe0f
p2959
aa(lp2960
Vman-juggling-type-6
p2961
aV\U0001f939\U0001f3ff\u200d\u2642\ufe0f
p2962
aa(lp2963
Vwoman-juggling
p2964
aV\U0001f939\u200d\u2640\ufe0f
p2965
aa(lp2966
Vwoman-juggling-type-1-2
p2967
aV\U0001f939\U0001f3fb\u200d\u2640\ufe0f
p2968
aa(lp2969
Vwoman-juggling-type-3
p2970
aV\U0001f939\U0001f3fc\u200d\u2640\ufe0f
p2971
aa(lp2972
Vwoman-juggling-type-4
p2973
aV\U0001f939\U0001f3fd\u200d\u2640\ufe0f
p2974
aa(lp2975
Vwoman-juggling-type-5
p2976
aV\U0001f939\U0001f3fe\u200d\u2640\ufe0f
p2977
aa(lp2978
Vwoman-juggling-type-6
p2979
aV\U0001f939\U0001f3ff\u200d\u2640\ufe0f
p2980
aa(lp2981
Vman-and-woman-holding-hands
p2982
aV\U0001f46b
p2983
aa(lp2984
Vtwo-men-holding-hands
p2985
aV\U0001f46c
p2986
aa(lp2987
Vtwo-women-holding-hands
p2988
aV\U0001f46d
p2989
aa(lp2990
Vkiss
p2991
aV\U0001f48f
p2992
aa(lp2993
Vkiss-woman-man
p2994
aV\U0001f469\u200d\u2764\ufe0f\u200d\U0001f48b\u200d\U0001f468
p2995
aa(lp2996
Vkiss-man-man
p2997
aV\U0001f468\u200d\u2764\ufe0f\u200d\U0001f48b\u200d\U0001f468
p2998
aa(lp2999
Vkiss-woman-woman
p3000
aV\U0001f469\u200d\u2764\ufe0f\u200d\U0001f48b\u200d\U0001f469
p3001
aa(lp3002
Vcouple-with-heart
p3003
aV\U0001f491
p3004
aa(lp3005
Vcouple-with-heart-woman-man
p3006
aV\U0001f469\u200d\u2764\ufe0f\u200d\U0001f468
p3007
aa(lp3008
Vcouple-with-heart-man-man
p3009
aV\U0001f468\u200d\u2764\ufe0f\u200d\U0001f468
p3010
aa(lp3011
Vcouple-with-heart-woman-woman
p3012
aV\U0001f469\u200d\u2764\ufe0f\u200d\U0001f469
p3013
aa(lp3014
Vfamily
p3015
aV\U0001f46a
p3016
aa(lp3017
Vfamily-man-woman-boy
p3018
aV\U0001f468\u200d\U0001f469\u200d\U0001f466
p3019
aa(lp3020
Vfamily-man-woman-girl
p3021
aV\U0001f468\u200d\U0001f469\u200d\U0001f467
p3022
aa(lp3023
Vfamily-man-woman-girl-boy
p3024
aV\U0001f468\u200d\U0001f469\u200d\U0001f467\u200d\U0001f466
p3025
aa(lp3026
Vfamily-man-woman-boy-boy
p3027
aV\U0001f468\u200d\U0001f469\u200d\U0001f466\u200d\U0001f466
p3028
aa(lp3029
Vfamily-man-woman-girl-girl
p3030
aV\U0001f468\u200d\U0001f469\u200d\U0001f467\u200d\U0001f467
p3031
aa(lp3032
Vfamily-man-man-boy
p3033
aV\U0001f468\u200d\U0001f468\u200d\U0001f466
p3034
aa(lp3035
Vfamily-man-man-girl
p3036
aV\U0001f468\u200d\U0001f468\u200d\U0001f467
p3037
aa(lp3038
Vfamily-man-man-girl-boy
p3039
aV\U0001f468\u200d\U0001f468\u200d\U0001f467\u200d\U0001f466
p3040
aa(lp3041
Vfamily-man-man-boy-boy
p3042
aV\U0001f468\u200d\U0001f468\u200d\U0001f466\u200d\U0001f466
p3043
aa(lp3044
Vfamily-man-man-girl-girl
p3045
aV\U0001f468\u200d\U0001f468\u200d\U0001f467\u200d\U0001f467
p3046
aa(lp3047
Vfamily-woman-woman-boy
p3048
aV\U0001f469\u200d\U0001f469\u200d\U0001f466
p3049
aa(lp3050
Vfamily-woman-woman-girl
p3051
aV\U0001f469\u200d\U0001f469\u200d\U0001f467
p3052
aa(lp3053
Vfamily-woman-woman-girl-boy
p3054
aV\U0001f469\u200d\U0001f469\u200d\U0001f467\u200d\U0001f466
p3055
aa(lp3056
Vfamily-woman-woman-boy-boy
p3057
aV\U0001f469\u200d\U0001f469\u200d\U0001f466\u200d\U0001f466
p3058
aa(lp3059
Vfamily-woman-woman-girl-girl
p3060
aV\U0001f469\u200d\U0001f469\u200d\U0001f467\u200d\U0001f467
p3061
aa(lp3062
Vfamily-man-boy
p3063
aV\U0001f468\u200d\U0001f466
p3064
aa(lp3065
Vfamily-man-boy-boy
p3066
aV\U0001f468\u200d\U0001f466\u200d\U0001f466
p3067
aa(lp3068
Vfamily-man-girl
p3069
aV\U0001f468\u200d\U0001f467
p3070
aa(lp3071
Vfamily-man-girl-boy
p3072
aV\U0001f468\u200d\U0001f467\u200d\U0001f466
p3073
aa(lp3074
Vfamily-man-girl-girl
p3075
aV\U0001f468\u200d\U0001f467\u200d\U0001f467
p3076
aa(lp3077
Vfamily-woman-boy
p3078
aV\U0001f469\u200d\U0001f466
p3079
aa(lp3080
Vfamily-woman-boy-boy
p3081
aV\U0001f469\u200d\U0001f466\u200d\U0001f466
p3082
aa(lp3083
Vfamily-woman-girl
p3084
aV\U0001f469\u200d\U0001f467
p3085
aa(lp3086
Vfamily-woman-girl-boy
p3087
aV\U0001f469\u200d\U0001f467\u200d\U0001f466
p3088
aa(lp3089
Vfamily-woman-girl-girl
p3090
aV\U0001f469\u200d\U0001f467\u200d\U0001f467
p3091
aa(lp3092
Vselfie
p3093
aV\U0001f933
p3094
aa(lp3095
Vselfie-type-1-2
p3096
aV\U0001f933\U0001f3fb
p3097
aa(lp3098
Vselfie-type-3
p3099
aV\U0001f933\U0001f3fc
p3100
aa(lp3101
Vselfie-type-4
p3102
aV\U0001f933\U0001f3fd
p3103
aa(lp3104
Vselfie-type-5
p3105
aV\U0001f933\U0001f3fe
p3106
aa(lp3107
Vselfie-type-6
p3108
aV\U0001f933\U0001f3ff
p3109
aa(lp3110
Vflexed-biceps
p3111
aV\U0001f4aa
p3112
aa(lp3113
Vflexed-biceps-type-1-2
p3114
aV\U0001f4aa\U0001f3fb
p3115
aa(lp3116
Vflexed-biceps-type-3
p3117
aV\U0001f4aa\U0001f3fc
p3118
aa(lp3119
Vflexed-biceps-type-4
p3120
aV\U0001f4aa\U0001f3fd
p3121
aa(lp3122
Vflexed-biceps-type-5
p3123
aV\U0001f4aa\U0001f3fe
p3124
aa(lp3125
Vflexed-biceps-type-6
p3126
aV\U0001f4aa\U0001f3ff
p3127
aa(lp3128
Vwhite-left-pointing-backhand-index
p3129
aV\U0001f448
p3130
aa(lp3131
Vwhite-left-pointing-backhand-index-type-1-2
p3132
aV\U0001f448\U0001f3fb
p3133
aa(lp3134
Vwhite-left-pointing-backhand-index-type-3
p3135
aV\U0001f448\U0001f3fc
p3136
aa(lp3137
Vwhite-left-pointing-backhand-index-type-4
p3138
aV\U0001f448\U0001f3fd
p3139
aa(lp3140
Vwhite-left-pointing-backhand-index-type-5
p3141
aV\U0001f448\U0001f3fe
p3142
aa(lp3143
Vwhite-left-pointing-backhand-index-type-6
p3144
aV\U0001f448\U0001f3ff
p3145
aa(lp3146
Vwhite-right-pointing-backhand-index
p3147
aV\U0001f449
p3148
aa(lp3149
Vwhite-right-pointing-backhand-index-type-1-2
p3150
aV\U0001f449\U0001f3fb
p3151
aa(lp3152
Vwhite-right-pointing-backhand-index-type-3
p3153
aV\U0001f449\U0001f3fc
p3154
aa(lp3155
Vwhite-right-pointing-backhand-index-type-4
p3156
aV\U0001f449\U0001f3fd
p3157
aa(lp3158
Vwhite-right-pointing-backhand-index-type-5
p3159
aV\U0001f449\U0001f3fe
p3160
aa(lp3161
Vwhite-right-pointing-backhand-index-type-6
p3162
aV\U0001f449\U0001f3ff
p3163
aa(lp3164
Vwhite-up-pointing-index
p3165
aV\u261d
p3166
aa(lp3167
Vwhite-up-pointing-index-type-1-2
p3168
aV\u261d\U0001f3fb
p3169
aa(lp3170
Vwhite-up-pointing-index-type-3
p3171
aV\u261d\U0001f3fc
p3172
aa(lp3173
Vwhite-up-pointing-index-type-4
p3174
aV\u261d\U0001f3fd
p3175
aa(lp3176
Vwhite-up-pointing-index-type-5
p3177
aV\u261d\U0001f3fe
p3178
aa(lp3179
Vwhite-up-pointing-index-type-6
p3180
aV\u261d\U0001f3ff
p3181
aa(lp3182
Vwhite-up-pointing-backhand-index
p3183
aV\U0001f446
p3184
aa(lp3185
Vwhite-up-pointing-backhand-index-type-1-2
p3186
aV\U0001f446\U0001f3fb
p3187
aa(lp3188
Vwhite-up-pointing-backhand-index-type-3
p3189
aV\U0001f446\U0001f3fc
p3190
aa(lp3191
Vwhite-up-pointing-backhand-index-type-4
p3192
aV\U0001f446\U0001f3fd
p3193
aa(lp3194
Vwhite-up-pointing-backhand-index-type-5
p3195
aV\U0001f446\U0001f3fe
p3196
aa(lp3197
Vwhite-up-pointing-backhand-index-type-6
p3198
aV\U0001f446\U0001f3ff
p3199
aa(lp3200
Vreversed-hand-with-middle-finger-extended
p3201
aV\U0001f595
p3202
aa(lp3203
Vreversed-hand-with-middle-finger-extended-type-1-2
p3204
aV\U0001f595\U0001f3fb
p3205
aa(lp3206
Vreversed-hand-with-middle-finger-extended-type-3
p3207
aV\U0001f595\U0001f3fc
p3208
aa(lp3209
Vreversed-hand-with-middle-finger-extended-type-4
p3210
aV\U0001f595\U0001f3fd
p3211
aa(lp3212
Vreversed-hand-with-middle-finger-extended-type-5
p3213
aV\U0001f595\U0001f3fe
p3214
aa(lp3215
Vreversed-hand-with-middle-finger-extended-type-6
p3216
aV\U0001f595\U0001f3ff
p3217
aa(lp3218
Vwhite-down-pointing-backhand-index
p3219
aV\U0001f447
p3220
aa(lp3221
Vwhite-down-pointing-backhand-index-type-1-2
p3222
aV\U0001f447\U0001f3fb
p3223
aa(lp3224
Vwhite-down-pointing-backhand-index-type-3
p3225
aV\U0001f447\U0001f3fc
p3226
aa(lp3227
Vwhite-down-pointing-backhand-index-type-4
p3228
aV\U0001f447\U0001f3fd
p3229
aa(lp3230
Vwhite-down-pointing-backhand-index-type-5
p3231
aV\U0001f447\U0001f3fe
p3232
aa(lp3233
Vwhite-down-pointing-backhand-index-type-6
p3234
aV\U0001f447\U0001f3ff
p3235
aa(lp3236
Vvictory-hand
p3237
aV\u270c
p3238
aa(lp3239
Vvictory-hand-type-1-2
p3240
aV\u270c\U0001f3fb
p3241
aa(lp3242
Vvictory-hand-type-3
p3243
aV\u270c\U0001f3fc
p3244
aa(lp3245
Vvictory-hand-type-4
p3246
aV\u270c\U0001f3fd
p3247
aa(lp3248
Vvictory-hand-type-5
p3249
aV\u270c\U0001f3fe
p3250
aa(lp3251
Vvictory-hand-type-6
p3252
aV\u270c\U0001f3ff
p3253
aa(lp3254
Vhand-with-index-and-middle-fingers-crossed
p3255
aV\U0001f91e
p3256
aa(lp3257
Vhand-with-index-and-middle-fingers-crossed-type-1-2
p3258
aV\U0001f91e\U0001f3fb
p3259
aa(lp3260
Vhand-with-index-and-middle-fingers-crossed-type-3
p3261
aV\U0001f91e\U0001f3fc
p3262
aa(lp3263
Vhand-with-index-and-middle-fingers-crossed-type-4
p3264
aV\U0001f91e\U0001f3fd
p3265
aa(lp3266
Vhand-with-index-and-middle-fingers-crossed-type-5
p3267
aV\U0001f91e\U0001f3fe
p3268
aa(lp3269
Vhand-with-index-and-middle-fingers-crossed-type-6
p3270
aV\U0001f91e\U0001f3ff
p3271
aa(lp3272
Vraised-hand-with-part-between-middle-and-ring-fingers
p3273
aV\U0001f596
p3274
aa(lp3275
Vraised-hand-with-part-between-middle-and-ring-fingers-type-1-2
p3276
aV\U0001f596\U0001f3fb
p3277
aa(lp3278
Vraised-hand-with-part-between-middle-and-ring-fingers-type-3
p3279
aV\U0001f596\U0001f3fc
p3280
aa(lp3281
Vraised-hand-with-part-between-middle-and-ring-fingers-type-4
p3282
aV\U0001f596\U0001f3fd
p3283
aa(lp3284
Vraised-hand-with-part-between-middle-and-ring-fingers-type-5
p3285
aV\U0001f596\U0001f3fe
p3286
aa(lp3287
Vraised-hand-with-part-between-middle-and-ring-fingers-type-6
p3288
aV\U0001f596\U0001f3ff
p3289
aa(lp3290
Vsign-of-the-horns
p3291
aV\U0001f918
p3292
aa(lp3293
Vsign-of-the-horns-type-1-2
p3294
aV\U0001f918\U0001f3fb
p3295
aa(lp3296
Vsign-of-the-horns-type-3
p3297
aV\U0001f918\U0001f3fc
p3298
aa(lp3299
Vsign-of-the-horns-type-4
p3300
aV\U0001f918\U0001f3fd
p3301
aa(lp3302
Vsign-of-the-horns-type-5
p3303
aV\U0001f918\U0001f3fe
p3304
aa(lp3305
Vsign-of-the-horns-type-6
p3306
aV\U0001f918\U0001f3ff
p3307
aa(lp3308
Vcall-me-hand
p3309
aV\U0001f919
p3310
aa(lp3311
Vcall-me-hand-type-1-2
p3312
aV\U0001f919\U0001f3fb
p3313
aa(lp3314
Vcall-me-hand-type-3
p3315
aV\U0001f919\U0001f3fc
p3316
aa(lp3317
Vcall-me-hand-type-4
p3318
aV\U0001f919\U0001f3fd
p3319
aa(lp3320
Vcall-me-hand-type-5
p3321
aV\U0001f919\U0001f3fe
p3322
aa(lp3323
Vcall-me-hand-type-6
p3324
aV\U0001f919\U0001f3ff
p3325
aa(lp3326
Vraised-hand-with-fingers-splayed
p3327
aV\U0001f590
p3328
aa(lp3329
Vraised-hand-with-fingers-splayed-type-1-2
p3330
aV\U0001f590\U0001f3fb
p3331
aa(lp3332
Vraised-hand-with-fingers-splayed-type-3
p3333
aV\U0001f590\U0001f3fc
p3334
aa(lp3335
Vraised-hand-with-fingers-splayed-type-4
p3336
aV\U0001f590\U0001f3fd
p3337
aa(lp3338
Vraised-hand-with-fingers-splayed-type-5
p3339
aV\U0001f590\U0001f3fe
p3340
aa(lp3341
Vraised-hand-with-fingers-splayed-type-6
p3342
aV\U0001f590\U0001f3ff
p3343
aa(lp3344
Vraised-hand
p3345
aV\u270b
p3346
aa(lp3347
Vraised-hand-type-1-2
p3348
aV\u270b\U0001f3fb
p3349
aa(lp3350
Vraised-hand-type-3
p3351
aV\u270b\U0001f3fc
p3352
aa(lp3353
Vraised-hand-type-4
p3354
aV\u270b\U0001f3fd
p3355
aa(lp3356
Vraised-hand-type-5
p3357
aV\u270b\U0001f3fe
p3358
aa(lp3359
Vraised-hand-type-6
p3360
aV\u270b\U0001f3ff
p3361
aa(lp3362
Vok-hand-sign
p3363
aV\U0001f44c
p3364
aa(lp3365
Vok-hand-sign-type-1-2
p3366
aV\U0001f44c\U0001f3fb
p3367
aa(lp3368
Vok-hand-sign-type-3
p3369
aV\U0001f44c\U0001f3fc
p3370
aa(lp3371
Vok-hand-sign-type-4
p3372
aV\U0001f44c\U0001f3fd
p3373
aa(lp3374
Vok-hand-sign-type-5
p3375
aV\U0001f44c\U0001f3fe
p3376
aa(lp3377
Vok-hand-sign-type-6
p3378
aV\U0001f44c\U0001f3ff
p3379
aa(lp3380
Vthumbs-up-sign
p3381
aV\U0001f44d
p3382
aa(lp3383
Vthumbs-up-sign-type-1-2
p3384
aV\U0001f44d\U0001f3fb
p3385
aa(lp3386
Vthumbs-up-sign-type-3
p3387
aV\U0001f44d\U0001f3fc
p3388
aa(lp3389
Vthumbs-up-sign-type-4
p3390
aV\U0001f44d\U0001f3fd
p3391
aa(lp3392
Vthumbs-up-sign-type-5
p3393
aV\U0001f44d\U0001f3fe
p3394
aa(lp3395
Vthumbs-up-sign-type-6
p3396
aV\U0001f44d\U0001f3ff
p3397
aa(lp3398
Vthumbs-down-sign
p3399
aV\U0001f44e
p3400
aa(lp3401
Vthumbs-down-sign-type-1-2
p3402
aV\U0001f44e\U0001f3fb
p3403
aa(lp3404
Vthumbs-down-sign-type-3
p3405
aV\U0001f44e\U0001f3fc
p3406
aa(lp3407
Vthumbs-down-sign-type-4
p3408
aV\U0001f44e\U0001f3fd
p3409
aa(lp3410
Vthumbs-down-sign-type-5
p3411
aV\U0001f44e\U0001f3fe
p3412
aa(lp3413
Vthumbs-down-sign-type-6
p3414
aV\U0001f44e\U0001f3ff
p3415
aa(lp3416
Vraised-fist
p3417
aV\u270a
p3418
aa(lp3419
Vraised-fist-type-1-2
p3420
aV\u270a\U0001f3fb
p3421
aa(lp3422
Vraised-fist-type-3
p3423
aV\u270a\U0001f3fc
p3424
aa(lp3425
Vraised-fist-type-4
p3426
aV\u270a\U0001f3fd
p3427
aa(lp3428
Vraised-fist-type-5
p3429
aV\u270a\U0001f3fe
p3430
aa(lp3431
Vraised-fist-type-6
p3432
aV\u270a\U0001f3ff
p3433
aa(lp3434
Vfisted-hand-sign
p3435
aV\U0001f44a
p3436
aa(lp3437
Vfisted-hand-sign-type-1-2
p3438
aV\U0001f44a\U0001f3fb
p3439
aa(lp3440
Vfisted-hand-sign-type-3
p3441
aV\U0001f44a\U0001f3fc
p3442
aa(lp3443
Vfisted-hand-sign-type-4
p3444
aV\U0001f44a\U0001f3fd
p3445
aa(lp3446
Vfisted-hand-sign-type-5
p3447
aV\U0001f44a\U0001f3fe
p3448
aa(lp3449
Vfisted-hand-sign-type-6
p3450
aV\U0001f44a\U0001f3ff
p3451
aa(lp3452
Vleft-facing-fist
p3453
aV\U0001f91b
p3454
aa(lp3455
Vleft-facing-fist-type-1-2
p3456
aV\U0001f91b\U0001f3fb
p3457
aa(lp3458
Vleft-facing-fist-type-3
p3459
aV\U0001f91b\U0001f3fc
p3460
aa(lp3461
Vleft-facing-fist-type-4
p3462
aV\U0001f91b\U0001f3fd
p3463
aa(lp3464
Vleft-facing-fist-type-5
p3465
aV\U0001f91b\U0001f3fe
p3466
aa(lp3467
Vleft-facing-fist-type-6
p3468
aV\U0001f91b\U0001f3ff
p3469
aa(lp3470
Vright-facing-fist
p3471
aV\U0001f91c
p3472
aa(lp3473
Vright-facing-fist-type-1-2
p3474
aV\U0001f91c\U0001f3fb
p3475
aa(lp3476
Vright-facing-fist-type-3
p3477
aV\U0001f91c\U0001f3fc
p3478
aa(lp3479
Vright-facing-fist-type-4
p3480
aV\U0001f91c\U0001f3fd
p3481
aa(lp3482
Vright-facing-fist-type-5
p3483
aV\U0001f91c\U0001f3fe
p3484
aa(lp3485
Vright-facing-fist-type-6
p3486
aV\U0001f91c\U0001f3ff
p3487
aa(lp3488
Vraised-back-of-hand
p3489
aV\U0001f91a
p3490
aa(lp3491
Vraised-back-of-hand-type-1-2
p3492
aV\U0001f91a\U0001f3fb
p3493
aa(lp3494
Vraised-back-of-hand-type-3
p3495
aV\U0001f91a\U0001f3fc
p3496
aa(lp3497
Vraised-back-of-hand-type-4
p3498
aV\U0001f91a\U0001f3fd
p3499
aa(lp3500
Vraised-back-of-hand-type-5
p3501
aV\U0001f91a\U0001f3fe
p3502
aa(lp3503
Vraised-back-of-hand-type-6
p3504
aV\U0001f91a\U0001f3ff
p3505
aa(lp3506
Vwaving-hand-sign
p3507
aV\U0001f44b
p3508
aa(lp3509
Vwaving-hand-sign-type-1-2
p3510
aV\U0001f44b\U0001f3fb
p3511
aa(lp3512
Vwaving-hand-sign-type-3
p3513
aV\U0001f44b\U0001f3fc
p3514
aa(lp3515
Vwaving-hand-sign-type-4
p3516
aV\U0001f44b\U0001f3fd
p3517
aa(lp3518
Vwaving-hand-sign-type-5
p3519
aV\U0001f44b\U0001f3fe
p3520
aa(lp3521
Vwaving-hand-sign-type-6
p3522
aV\U0001f44b\U0001f3ff
p3523
aa(lp3524
Vwriting-hand
p3525
aV\u270d
p3526
aa(lp3527
Vwriting-hand-type-1-2
p3528
aV\u270d\U0001f3fb
p3529
aa(lp3530
Vwriting-hand-type-3
p3531
aV\u270d\U0001f3fc
p3532
aa(lp3533
Vwriting-hand-type-4
p3534
aV\u270d\U0001f3fd
p3535
aa(lp3536
Vwriting-hand-type-5
p3537
aV\u270d\U0001f3fe
p3538
aa(lp3539
Vwriting-hand-type-6
p3540
aV\u270d\U0001f3ff
p3541
aa(lp3542
Vclapping-hands-sign
p3543
aV\U0001f44f
p3544
aa(lp3545
Vclapping-hands-sign-type-1-2
p3546
aV\U0001f44f\U0001f3fb
p3547
aa(lp3548
Vclapping-hands-sign-type-3
p3549
aV\U0001f44f\U0001f3fc
p3550
aa(lp3551
Vclapping-hands-sign-type-4
p3552
aV\U0001f44f\U0001f3fd
p3553
aa(lp3554
Vclapping-hands-sign-type-5
p3555
aV\U0001f44f\U0001f3fe
p3556
aa(lp3557
Vclapping-hands-sign-type-6
p3558
aV\U0001f44f\U0001f3ff
p3559
aa(lp3560
Vopen-hands-sign
p3561
aV\U0001f450
p3562
aa(lp3563
Vopen-hands-sign-type-1-2
p3564
aV\U0001f450\U0001f3fb
p3565
aa(lp3566
Vopen-hands-sign-type-3
p3567
aV\U0001f450\U0001f3fc
p3568
aa(lp3569
Vopen-hands-sign-type-4
p3570
aV\U0001f450\U0001f3fd
p3571
aa(lp3572
Vopen-hands-sign-type-5
p3573
aV\U0001f450\U0001f3fe
p3574
aa(lp3575
Vopen-hands-sign-type-6
p3576
aV\U0001f450\U0001f3ff
p3577
aa(lp3578
Vperson-raising-both-hands-in-celebration
p3579
aV\U0001f64c
p3580
aa(lp3581
Vperson-raising-both-hands-in-celebration-type-1-2
p3582
aV\U0001f64c\U0001f3fb
p3583
aa(lp3584
Vperson-raising-both-hands-in-celebration-type-3
p3585
aV\U0001f64c\U0001f3fc
p3586
aa(lp3587
Vperson-raising-both-hands-in-celebration-type-4
p3588
aV\U0001f64c\U0001f3fd
p3589
aa(lp3590
Vperson-raising-both-hands-in-celebration-type-5
p3591
aV\U0001f64c\U0001f3fe
p3592
aa(lp3593
Vperson-raising-both-hands-in-celebration-type-6
p3594
aV\U0001f64c\U0001f3ff
p3595
aa(lp3596
Vperson-with-folded-hands
p3597
aV\U0001f64f
p3598
aa(lp3599
Vperson-with-folded-hands-type-1-2
p3600
aV\U0001f64f\U0001f3fb
p3601
aa(lp3602
Vperson-with-folded-hands-type-3
p3603
aV\U0001f64f\U0001f3fc
p3604
aa(lp3605
Vperson-with-folded-hands-type-4
p3606
aV\U0001f64f\U0001f3fd
p3607
aa(lp3608
Vperson-with-folded-hands-type-5
p3609
aV\U0001f64f\U0001f3fe
p3610
aa(lp3611
Vperson-with-folded-hands-type-6
p3612
aV\U0001f64f\U0001f3ff
p3613
aa(lp3614
Vhandshake
p3615
aV\U0001f91d
p3616
aa(lp3617
Vnail-polish
p3618
aV\U0001f485
p3619
aa(lp3620
Vnail-polish-type-1-2
p3621
aV\U0001f485\U0001f3fb
p3622
aa(lp3623
Vnail-polish-type-3
p3624
aV\U0001f485\U0001f3fc
p3625
aa(lp3626
Vnail-polish-type-4
p3627
aV\U0001f485\U0001f3fd
p3628
aa(lp3629
Vnail-polish-type-5
p3630
aV\U0001f485\U0001f3fe
p3631
aa(lp3632
Vnail-polish-type-6
p3633
aV\U0001f485\U0001f3ff
p3634
aa(lp3635
Vear
p3636
aV\U0001f442
p3637
aa(lp3638
Vear-type-1-2
p3639
aV\U0001f442\U0001f3fb
p3640
aa(lp3641
Vear-type-3
p3642
aV\U0001f442\U0001f3fc
p3643
aa(lp3644
Vear-type-4
p3645
aV\U0001f442\U0001f3fd
p3646
aa(lp3647
Vear-type-5
p3648
aV\U0001f442\U0001f3fe
p3649
aa(lp3650
Vear-type-6
p3651
aV\U0001f442\U0001f3ff
p3652
aa(lp3653
Vnose
p3654
aV\U0001f443
p3655
aa(lp3656
Vnose-type-1-2
p3657
aV\U0001f443\U0001f3fb
p3658
aa(lp3659
Vnose-type-3
p3660
aV\U0001f443\U0001f3fc
p3661
aa(lp3662
Vnose-type-4
p3663
aV\U0001f443\U0001f3fd
p3664
aa(lp3665
Vnose-type-5
p3666
aV\U0001f443\U0001f3fe
p3667
aa(lp3668
Vnose-type-6
p3669
aV\U0001f443\U0001f3ff
p3670
aa(lp3671
Vfootprints
p3672
aV\U0001f463
p3673
aa(lp3674
Veyes
p3675
aV\U0001f440
p3676
aa(lp3677
Veye
p3678
aV\U0001f441
p3679
aa(lp3680
Veye-in-speech-bubble
p3681
aV\U0001f441\ufe0f\u200d\U0001f5e8\ufe0f
p3682
aa(lp3683
Vtongue
p3684
aV\U0001f445
p3685
aa(lp3686
Vmouth
p3687
aV\U0001f444
p3688
aa(lp3689
Vkiss-mark
p3690
aV\U0001f48b
p3691
aa(lp3692
Vheart-with-arrow
p3693
aV\U0001f498
p3694
aa(lp3695
Vheavy-black-heart
p3696
aV\u2764
p3697
aa(lp3698
Vbeating-heart
p3699
aV\U0001f493
p3700
aa(lp3701
Vbroken-heart
p3702
aV\U0001f494
p3703
aa(lp3704
Vtwo-hearts
p3705
aV\U0001f495
p3706
aa(lp3707
Vsparkling-heart
p3708
aV\U0001f496
p3709
aa(lp3710
Vgrowing-heart
p3711
aV\U0001f497
p3712
aa(lp3713
Vblue-heart
p3714
aV\U0001f499
p3715
aa(lp3716
Vgreen-heart
p3717
aV\U0001f49a
p3718
aa(lp3719
Vyellow-heart
p3720
aV\U0001f49b
p3721
aa(lp3722
Vpurple-heart
p3723
aV\U0001f49c
p3724
aa(lp3725
Vblack-heart
p3726
aV\U0001f5a4
p3727
aa(lp3728
Vheart-with-ribbon
p3729
aV\U0001f49d
p3730
aa(lp3731
Vrevolving-hearts
p3732
aV\U0001f49e
p3733
aa(lp3734
Vheart-decoration
p3735
aV\U0001f49f
p3736
aa(lp3737
Vheavy-heart-exclamation-mark-ornament
p3738
aV\u2763
p3739
aa(lp3740
Vlove-letter
p3741
aV\U0001f48c
p3742
aa(lp3743
Vsleeping-symbol
p3744
aV\U0001f4a4
p3745
aa(lp3746
Vanger-symbol
p3747
aV\U0001f4a2
p3748
aa(lp3749
Vbomb
p3750
aV\U0001f4a3
p3751
aa(lp3752
Vcollision-symbol
p3753
aV\U0001f4a5
p3754
aa(lp3755
Vsplashing-sweat-symbol
p3756
aV\U0001f4a6
p3757
aa(lp3758
Vdash-symbol
p3759
aV\U0001f4a8
p3760
aa(lp3761
Vdizzy-symbol
p3762
aV\U0001f4ab
p3763
aa(lp3764
Vspeech-balloon
p3765
aV\U0001f4ac
p3766
aa(lp3767
Vleft-speech-bubble
p3768
aV\U0001f5e8
p3769
aa(lp3770
Vright-anger-bubble
p3771
aV\U0001f5ef
p3772
aa(lp3773
Vthought-balloon
p3774
aV\U0001f4ad
p3775
aa(lp3776
Vhole
p3777
aV\U0001f573
p3778
aa(lp3779
Veyeglasses
p3780
aV\U0001f453
p3781
aa(lp3782
Vdark-sunglasses
p3783
aV\U0001f576
p3784
aa(lp3785
Vnecktie
p3786
aV\U0001f454
p3787
aa(lp3788
Vt-shirt
p3789
aV\U0001f455
p3790
aa(lp3791
Vjeans
p3792
aV\U0001f456
p3793
aa(lp3794
Vdress
p3795
aV\U0001f457
p3796
aa(lp3797
Vkimono
p3798
aV\U0001f458
p3799
aa(lp3800
Vbikini
p3801
aV\U0001f459
p3802
aa(lp3803
Vwomans-clothes
p3804
aV\U0001f45a
p3805
aa(lp3806
Vpurse
p3807
aV\U0001f45b
p3808
aa(lp3809
Vhandbag
p3810
aV\U0001f45c
p3811
aa(lp3812
Vpouch
p3813
aV\U0001f45d
p3814
aa(lp3815
Vshopping-bags
p3816
aV\U0001f6cd
p3817
aa(lp3818
Vschool-satchel
p3819
aV\U0001f392
p3820
aa(lp3821
Vmans-shoe
p3822
aV\U0001f45e
p3823
aa(lp3824
Vathletic-shoe
p3825
aV\U0001f45f
p3826
aa(lp3827
Vhigh-heeled-shoe
p3828
aV\U0001f460
p3829
aa(lp3830
Vwomans-sandal
p3831
aV\U0001f461
p3832
aa(lp3833
Vwomans-boots
p3834
aV\U0001f462
p3835
aa(lp3836
Vcrown
p3837
aV\U0001f451
p3838
aa(lp3839
Vwomans-hat
p3840
aV\U0001f452
p3841
aa(lp3842
Vtop-hat
p3843
aV\U0001f3a9
p3844
aa(lp3845
Vgraduation-cap
p3846
aV\U0001f393
p3847
aa(lp3848
Vhelmet-with-white-cross
p3849
aV\u26d1
p3850
aa(lp3851
Vprayer-beads
p3852
aV\U0001f4ff
p3853
aa(lp3854
Vlipstick
p3855
aV\U0001f484
p3856
aa(lp3857
Vring
p3858
aV\U0001f48d
p3859
aa(lp3860
Vgem-stone
p3861
aV\U0001f48e
p3862
aa(lp3863
Vmonkey-face
p3864
aV\U0001f435
p3865
aa(lp3866
Vmonkey
p3867
aV\U0001f412
p3868
aa(lp3869
Vgorilla
p3870
aV\U0001f98d
p3871
aa(lp3872
Vdog-face
p3873
aV\U0001f436
p3874
aa(lp3875
Vdog
p3876
aV\U0001f415
p3877
aa(lp3878
Vpoodle
p3879
aV\U0001f429
p3880
aa(lp3881
Vwolf-face
p3882
aV\U0001f43a
p3883
aa(lp3884
Vfox-face
p3885
aV\U0001f98a
p3886
aa(lp3887
Vcat-face
p3888
aV\U0001f431
p3889
aa(lp3890
Vcat
p3891
aV\U0001f408
p3892
aa(lp3893
Vlion-face
p3894
aV\U0001f981
p3895
aa(lp3896
Vtiger-face
p3897
aV\U0001f42f
p3898
aa(lp3899
Vtiger
p3900
aV\U0001f405
p3901
aa(lp3902
Vleopard
p3903
aV\U0001f406
p3904
aa(lp3905
Vhorse-face
p3906
aV\U0001f434
p3907
aa(lp3908
Vhorse
p3909
aV\U0001f40e
p3910
aa(lp3911
Vunicorn-face
p3912
aV\U0001f984
p3913
aa(lp3914
Vdeer
p3915
aV\U0001f98c
p3916
aa(lp3917
Vcow-face
p3918
aV\U0001f42e
p3919
aa(lp3920
Vox
p3921
aV\U0001f402
p3922
aa(lp3923
Vwater-buffalo
p3924
aV\U0001f403
p3925
aa(lp3926
Vcow
p3927
aV\U0001f404
p3928
aa(lp3929
Vpig-face
p3930
aV\U0001f437
p3931
aa(lp3932
Vpig
p3933
aV\U0001f416
p3934
aa(lp3935
Vboar
p3936
aV\U0001f417
p3937
aa(lp3938
Vpig-nose
p3939
aV\U0001f43d
p3940
aa(lp3941
Vram
p3942
aV\U0001f40f
p3943
aa(lp3944
Vsheep
p3945
aV\U0001f411
p3946
aa(lp3947
Vgoat
p3948
aV\U0001f410
p3949
aa(lp3950
Vdromedary-camel
p3951
aV\U0001f42a
p3952
aa(lp3953
Vbactrian-camel
p3954
aV\U0001f42b
p3955
aa(lp3956
Velephant
p3957
aV\U0001f418
p3958
aa(lp3959
Vrhinoceros
p3960
aV\U0001f98f
p3961
aa(lp3962
Vmouse-face
p3963
aV\U0001f42d
p3964
aa(lp3965
Vmouse
p3966
aV\U0001f401
p3967
aa(lp3968
Vrat
p3969
aV\U0001f400
p3970
aa(lp3971
Vhamster-face
p3972
aV\U0001f439
p3973
aa(lp3974
Vrabbit-face
p3975
aV\U0001f430
p3976
aa(lp3977
Vrabbit
p3978
aV\U0001f407
p3979
aa(lp3980
Vchipmunk
p3981
aV\U0001f43f
p3982
aa(lp3983
Vbat
p3984
aV\U0001f987
p3985
aa(lp3986
Vbear-face
p3987
aV\U0001f43b
p3988
aa(lp3989
Vkoala
p3990
aV\U0001f428
p3991
aa(lp3992
Vpanda-face
p3993
aV\U0001f43c
p3994
aa(lp3995
Vpaw-prints
p3996
aV\U0001f43e
p3997
aa(lp3998
Vturkey
p3999
aV\U0001f983
p4000
aa(lp4001
Vchicken
p4002
aV\U0001f414
p4003
aa(lp4004
Vrooster
p4005
aV\U0001f413
p4006
aa(lp4007
Vhatching-chick
p4008
aV\U0001f423
p4009
aa(lp4010
Vbaby-chick
p4011
aV\U0001f424
p4012
aa(lp4013
Vfront-facing-baby-chick
p4014
aV\U0001f425
p4015
aa(lp4016
Vbird
p4017
aV\U0001f426
p4018
aa(lp4019
Vpenguin
p4020
aV\U0001f427
p4021
aa(lp4022
Vdove-of-peace
p4023
aV\U0001f54a
p4024
aa(lp4025
Veagle
p4026
aV\U0001f985
p4027
aa(lp4028
Vduck
p4029
aV\U0001f986
p4030
aa(lp4031
Vowl
p4032
aV\U0001f989
p4033
aa(lp4034
Vfrog-face
p4035
aV\U0001f438
p4036
aa(lp4037
Vcrocodile
p4038
aV\U0001f40a
p4039
aa(lp4040
Vturtle
p4041
aV\U0001f422
p4042
aa(lp4043
Vlizard
p4044
aV\U0001f98e
p4045
aa(lp4046
Vsnake
p4047
aV\U0001f40d
p4048
aa(lp4049
Vdragon-face
p4050
aV\U0001f432
p4051
aa(lp4052
Vdragon
p4053
aV\U0001f409
p4054
aa(lp4055
Vspouting-whale
p4056
aV\U0001f433
p4057
aa(lp4058
Vwhale
p4059
aV\U0001f40b
p4060
aa(lp4061
Vdolphin
p4062
aV\U0001f42c
p4063
aa(lp4064
Vfish
p4065
aV\U0001f41f
p4066
aa(lp4067
Vtropical-fish
p4068
aV\U0001f420
p4069
aa(lp4070
Vblowfish
p4071
aV\U0001f421
p4072
aa(lp4073
Vshark
p4074
aV\U0001f988
p4075
aa(lp4076
Voctopus
p4077
aV\U0001f419
p4078
aa(lp4079
Vspiral-shell
p4080
aV\U0001f41a
p4081
aa(lp4082
Vcrab
p4083
aV\U0001f980
p4084
aa(lp4085
Vshrimp
p4086
aV\U0001f990
p4087
aa(lp4088
Vsquid
p4089
aV\U0001f991
p4090
aa(lp4091
Vsnail
p4092
aV\U0001f40c
p4093
aa(lp4094
Vbutterfly
p4095
aV\U0001f98b
p4096
aa(lp4097
Vbug
p4098
aV\U0001f41b
p4099
aa(lp4100
Vant
p4101
aV\U0001f41c
p4102
aa(lp4103
Vhoneybee
p4104
aV\U0001f41d
p4105
aa(lp4106
Vlady-beetle
p4107
aV\U0001f41e
p4108
aa(lp4109
Vspider
p4110
aV\U0001f577
p4111
aa(lp4112
Vspider-web
p4113
aV\U0001f578
p4114
aa(lp4115
Vscorpion
p4116
aV\U0001f982
p4117
aa(lp4118
Vbouquet
p4119
aV\U0001f490
p4120
aa(lp4121
Vcherry-blossom
p4122
aV\U0001f338
p4123
aa(lp4124
Vwhite-flower
p4125
aV\U0001f4ae
p4126
aa(lp4127
Vrosette
p4128
aV\U0001f3f5
p4129
aa(lp4130
Vrose
p4131
aV\U0001f339
p4132
aa(lp4133
Vwilted-flower
p4134
aV\U0001f940
p4135
aa(lp4136
Vhibiscus
p4137
aV\U0001f33a
p4138
aa(lp4139
Vsunflower
p4140
aV\U0001f33b
p4141
aa(lp4142
Vblossom
p4143
aV\U0001f33c
p4144
aa(lp4145
Vtulip
p4146
aV\U0001f337
p4147
aa(lp4148
Vseedling
p4149
aV\U0001f331
p4150
aa(lp4151
Vevergreen-tree
p4152
aV\U0001f332
p4153
aa(lp4154
Vdeciduous-tree
p4155
aV\U0001f333
p4156
aa(lp4157
Vpalm-tree
p4158
aV\U0001f334
p4159
aa(lp4160
Vcactus
p4161
aV\U0001f335
p4162
aa(lp4163
Vear-of-rice
p4164
aV\U0001f33e
p4165
aa(lp4166
Vherb
p4167
aV\U0001f33f
p4168
aa(lp4169
Vshamrock
p4170
aV\u2618
p4171
aa(lp4172
Vfour-leaf-clover
p4173
aV\U0001f340
p4174
aa(lp4175
Vmaple-leaf
p4176
aV\U0001f341
p4177
aa(lp4178
Vfallen-leaf
p4179
aV\U0001f342
p4180
aa(lp4181
Vleaf-fluttering-in-wind
p4182
aV\U0001f343
p4183
aa(lp4184
Vgrapes
p4185
aV\U0001f347
p4186
aa(lp4187
Vmelon
p4188
aV\U0001f348
p4189
aa(lp4190
Vwatermelon
p4191
aV\U0001f349
p4192
aa(lp4193
Vtangerine
p4194
aV\U0001f34a
p4195
aa(lp4196
Vlemon
p4197
aV\U0001f34b
p4198
aa(lp4199
Vbanana
p4200
aV\U0001f34c
p4201
aa(lp4202
Vpineapple
p4203
aV\U0001f34d
p4204
aa(lp4205
Vred-apple
p4206
aV\U0001f34e
p4207
aa(lp4208
Vgreen-apple
p4209
aV\U0001f34f
p4210
aa(lp4211
Vpear
p4212
aV\U0001f350
p4213
aa(lp4214
Vpeach
p4215
aV\U0001f351
p4216
aa(lp4217
Vcherries
p4218
aV\U0001f352
p4219
aa(lp4220
Vstrawberry
p4221
aV\U0001f353
p4222
aa(lp4223
Vkiwifruit
p4224
aV\U0001f95d
p4225
aa(lp4226
Vtomato
p4227
aV\U0001f345
p4228
aa(lp4229
Vavocado
p4230
aV\U0001f951
p4231
aa(lp4232
Vaubergine
p4233
aV\U0001f346
p4234
aa(lp4235
Vpotato
p4236
aV\U0001f954
p4237
aa(lp4238
Vcarrot
p4239
aV\U0001f955
p4240
aa(lp4241
Vear-of-maize
p4242
aV\U0001f33d
p4243
aa(lp4244
Vhot-pepper
p4245
aV\U0001f336
p4246
aa(lp4247
Vcucumber
p4248
aV\U0001f952
p4249
aa(lp4250
Vmushroom
p4251
aV\U0001f344
p4252
aa(lp4253
Vpeanuts
p4254
aV\U0001f95c
p4255
aa(lp4256
Vchestnut
p4257
aV\U0001f330
p4258
aa(lp4259
Vbread
p4260
aV\U0001f35e
p4261
aa(lp4262
Vcroissant
p4263
aV\U0001f950
p4264
aa(lp4265
Vbaguette-bread
p4266
aV\U0001f956
p4267
aa(lp4268
Vpancakes
p4269
aV\U0001f95e
p4270
aa(lp4271
Vcheese-wedge
p4272
aV\U0001f9c0
p4273
aa(lp4274
Vmeat-on-bone
p4275
aV\U0001f356
p4276
aa(lp4277
Vpoultry-leg
p4278
aV\U0001f357
p4279
aa(lp4280
Vbacon
p4281
aV\U0001f953
p4282
aa(lp4283
Vhamburger
p4284
aV\U0001f354
p4285
aa(lp4286
Vfrench-fries
p4287
aV\U0001f35f
p4288
aa(lp4289
Vslice-of-pizza
p4290
aV\U0001f355
p4291
aa(lp4292
Vhot-dog
p4293
aV\U0001f32d
p4294
aa(lp4295
Vtaco
p4296
aV\U0001f32e
p4297
aa(lp4298
Vburrito
p4299
aV\U0001f32f
p4300
aa(lp4301
Vstuffed-flatbread
p4302
aV\U0001f959
p4303
aa(lp4304
Vegg
p4305
aV\U0001f95a
p4306
aa(lp4307
Vcooking
p4308
aV\U0001f373
p4309
aa(lp4310
Vshallow-pan-of-food
p4311
aV\U0001f958
p4312
aa(lp4313
Vpot-of-food
p4314
aV\U0001f372
p4315
aa(lp4316
Vgreen-salad
p4317
aV\U0001f957
p4318
aa(lp4319
Vpopcorn
p4320
aV\U0001f37f
p4321
aa(lp4322
Vbento-box
p4323
aV\U0001f371
p4324
aa(lp4325
Vrice-cracker
p4326
aV\U0001f358
p4327
aa(lp4328
Vrice-ball
p4329
aV\U0001f359
p4330
aa(lp4331
Vcooked-rice
p4332
aV\U0001f35a
p4333
aa(lp4334
Vcurry-and-rice
p4335
aV\U0001f35b
p4336
aa(lp4337
Vsteaming-bowl
p4338
aV\U0001f35c
p4339
aa(lp4340
Vspaghetti
p4341
aV\U0001f35d
p4342
aa(lp4343
Vroasted-sweet-potato
p4344
aV\U0001f360
p4345
aa(lp4346
Voden
p4347
aV\U0001f362
p4348
aa(lp4349
Vsushi
p4350
aV\U0001f363
p4351
aa(lp4352
Vfried-shrimp
p4353
aV\U0001f364
p4354
aa(lp4355
Vfish-cake-with-swirl-design
p4356
aV\U0001f365
p4357
aa(lp4358
Vdango
p4359
aV\U0001f361
p4360
aa(lp4361
Vsoft-ice-cream
p4362
aV\U0001f366
p4363
aa(lp4364
Vshaved-ice
p4365
aV\U0001f367
p4366
aa(lp4367
Vice-cream
p4368
aV\U0001f368
p4369
aa(lp4370
Vdoughnut
p4371
aV\U0001f369
p4372
aa(lp4373
Vcookie
p4374
aV\U0001f36a
p4375
aa(lp4376
Vbirthday-cake
p4377
aV\U0001f382
p4378
aa(lp4379
Vshortcake
p4380
aV\U0001f370
p4381
aa(lp4382
Vchocolate-bar
p4383
aV\U0001f36b
p4384
aa(lp4385
Vcandy
p4386
aV\U0001f36c
p4387
aa(lp4388
Vlollipop
p4389
aV\U0001f36d
p4390
aa(lp4391
Vcustard
p4392
aV\U0001f36e
p4393
aa(lp4394
Vhoney-pot
p4395
aV\U0001f36f
p4396
aa(lp4397
Vbaby-bottle
p4398
aV\U0001f37c
p4399
aa(lp4400
Vglass-of-milk
p4401
aV\U0001f95b
p4402
aa(lp4403
Vhot-beverage
p4404
aV\u2615
p4405
aa(lp4406
Vteacup-without-handle
p4407
aV\U0001f375
p4408
aa(lp4409
Vsake-bottle-and-cup
p4410
aV\U0001f376
p4411
aa(lp4412
Vbottle-with-popping-cork
p4413
aV\U0001f37e
p4414
aa(lp4415
Vwine-glass
p4416
aV\U0001f377
p4417
aa(lp4418
Vcocktail-glass
p4419
aV\U0001f378
p4420
aa(lp4421
Vtropical-drink
p4422
aV\U0001f379
p4423
aa(lp4424
Vbeer-mug
p4425
aV\U0001f37a
p4426
aa(lp4427
Vclinking-beer-mugs
p4428
aV\U0001f37b
p4429
aa(lp4430
Vclinking-glasses
p4431
aV\U0001f942
p4432
aa(lp4433
Vtumbler-glass
p4434
aV\U0001f943
p4435
aa(lp4436
Vfork-and-knife-with-plate
p4437
aV\U0001f37d
p4438
aa(lp4439
Vfork-and-knife
p4440
aV\U0001f374
p4441
aa(lp4442
Vspoon
p4443
aV\U0001f944
p4444
aa(lp4445
Vhocho
p4446
aV\U0001f52a
p4447
aa(lp4448
Vamphora
p4449
aV\U0001f3fa
p4450
aa(lp4451
Vearth-globe-europe-africa
p4452
aV\U0001f30d
p4453
aa(lp4454
Vearth-globe-americas
p4455
aV\U0001f30e
p4456
aa(lp4457
Vearth-globe-asia-australia
p4458
aV\U0001f30f
p4459
aa(lp4460
Vglobe-with-meridians
p4461
aV\U0001f310
p4462
aa(lp4463
Vworld-map
p4464
aV\U0001f5fa
p4465
aa(lp4466
Vsilhouette-of-japan
p4467
aV\U0001f5fe
p4468
aa(lp4469
Vsnow-capped-mountain
p4470
aV\U0001f3d4
p4471
aa(lp4472
Vmountain
p4473
aV\u26f0
p4474
aa(lp4475
Vvolcano
p4476
aV\U0001f30b
p4477
aa(lp4478
Vmount-fuji
p4479
aV\U0001f5fb
p4480
aa(lp4481
Vcamping
p4482
aV\U0001f3d5
p4483
aa(lp4484
Vbeach-with-umbrella
p4485
aV\U0001f3d6
p4486
aa(lp4487
Vdesert
p4488
aV\U0001f3dc
p4489
aa(lp4490
Vdesert-island
p4491
aV\U0001f3dd
p4492
aa(lp4493
Vnational-park
p4494
aV\U0001f3de
p4495
aa(lp4496
Vstadium
p4497
aV\U0001f3df
p4498
aa(lp4499
Vclassical-building
p4500
aV\U0001f3db
p4501
aa(lp4502
Vbuilding-construction
p4503
aV\U0001f3d7
p4504
aa(lp4505
Vhouse-buildings
p4506
aV\U0001f3d8
p4507
aa(lp4508
Vcityscape
p4509
aV\U0001f3d9
p4510
aa(lp4511
Vderelict-house-building
p4512
aV\U0001f3da
p4513
aa(lp4514
Vhouse-building
p4515
aV\U0001f3e0
p4516
aa(lp4517
Vhouse-with-garden
p4518
aV\U0001f3e1
p4519
aa(lp4520
Voffice-building
p4521
aV\U0001f3e2
p4522
aa(lp4523
Vjapanese-post-office
p4524
aV\U0001f3e3
p4525
aa(lp4526
Veuropean-post-office
p4527
aV\U0001f3e4
p4528
aa(lp4529
Vhospital
p4530
aV\U0001f3e5
p4531
aa(lp4532
Vbank
p4533
aV\U0001f3e6
p4534
aa(lp4535
Vhotel
p4536
aV\U0001f3e8
p4537
aa(lp4538
Vlove-hotel
p4539
aV\U0001f3e9
p4540
aa(lp4541
Vconvenience-store
p4542
aV\U0001f3ea
p4543
aa(lp4544
Vschool
p4545
aV\U0001f3eb
p4546
aa(lp4547
Vdepartment-store
p4548
aV\U0001f3ec
p4549
aa(lp4550
Vfactory
p4551
aV\U0001f3ed
p4552
aa(lp4553
Vjapanese-castle
p4554
aV\U0001f3ef
p4555
aa(lp4556
Veuropean-castle
p4557
aV\U0001f3f0
p4558
aa(lp4559
Vwedding
p4560
aV\U0001f492
p4561
aa(lp4562
Vtokyo-tower
p4563
aV\U0001f5fc
p4564
aa(lp4565
Vstatue-of-liberty
p4566
aV\U0001f5fd
p4567
aa(lp4568
Vchurch
p4569
aV\u26ea
p4570
aa(lp4571
Vmosque
p4572
aV\U0001f54c
p4573
aa(lp4574
Vsynagogue
p4575
aV\U0001f54d
p4576
aa(lp4577
Vshinto-shrine
p4578
aV\u26e9
p4579
aa(lp4580
Vkaaba
p4581
aV\U0001f54b
p4582
aa(lp4583
Vfountain
p4584
aV\u26f2
p4585
aa(lp4586
Vtent
p4587
aV\u26fa
p4588
aa(lp4589
Vfoggy
p4590
aV\U0001f301
p4591
aa(lp4592
Vnight-with-stars
p4593
aV\U0001f303
p4594
aa(lp4595
Vsunrise-over-mountains
p4596
aV\U0001f304
p4597
aa(lp4598
Vsunrise
p4599
aV\U0001f305
p4600
aa(lp4601
Vcityscape-at-dusk
p4602
aV\U0001f306
p4603
aa(lp4604
Vsunset-over-buildings
p4605
aV\U0001f307
p4606
aa(lp4607
Vbridge-at-night
p4608
aV\U0001f309
p4609
aa(lp4610
Vhot-springs
p4611
aV\u2668
p4612
aa(lp4613
Vmilky-way
p4614
aV\U0001f30c
p4615
aa(lp4616
Vcarousel-horse
p4617
aV\U0001f3a0
p4618
aa(lp4619
Vferris-wheel
p4620
aV\U0001f3a1
p4621
aa(lp4622
Vroller-coaster
p4623
aV\U0001f3a2
p4624
aa(lp4625
Vbarber-pole
p4626
aV\U0001f488
p4627
aa(lp4628
Vcircus-tent
p4629
aV\U0001f3aa
p4630
aa(lp4631
Vperforming-arts
p4632
aV\U0001f3ad
p4633
aa(lp4634
Vframe-with-picture
p4635
aV\U0001f5bc
p4636
aa(lp4637
Vartist-palette
p4638
aV\U0001f3a8
p4639
aa(lp4640
Vslot-machine
p4641
aV\U0001f3b0
p4642
aa(lp4643
Vsteam-locomotive
p4644
aV\U0001f682
p4645
aa(lp4646
Vrailway-car
p4647
aV\U0001f683
p4648
aa(lp4649
Vhigh-speed-train
p4650
aV\U0001f684
p4651
aa(lp4652
Vhigh-speed-train-with-bullet-nose
p4653
aV\U0001f685
p4654
aa(lp4655
Vtrain
p4656
aV\U0001f686
p4657
aa(lp4658
Vmetro
p4659
aV\U0001f687
p4660
aa(lp4661
Vlight-rail
p4662
aV\U0001f688
p4663
aa(lp4664
Vstation
p4665
aV\U0001f689
p4666
aa(lp4667
Vtram
p4668
aV\U0001f68a
p4669
aa(lp4670
Vmonorail
p4671
aV\U0001f69d
p4672
aa(lp4673
Vmountain-railway
p4674
aV\U0001f69e
p4675
aa(lp4676
Vtram-car
p4677
aV\U0001f68b
p4678
aa(lp4679
Vbus
p4680
aV\U0001f68c
p4681
aa(lp4682
Voncoming-bus
p4683
aV\U0001f68d
p4684
aa(lp4685
Vtrolleybus
p4686
aV\U0001f68e
p4687
aa(lp4688
Vminibus
p4689
aV\U0001f690
p4690
aa(lp4691
Vambulance
p4692
aV\U0001f691
p4693
aa(lp4694
Vfire-engine
p4695
aV\U0001f692
p4696
aa(lp4697
Vpolice-car
p4698
aV\U0001f693
p4699
aa(lp4700
Voncoming-police-car
p4701
aV\U0001f694
p4702
aa(lp4703
Vtaxi
p4704
aV\U0001f695
p4705
aa(lp4706
Voncoming-taxi
p4707
aV\U0001f696
p4708
aa(lp4709
Vautomobile
p4710
aV\U0001f697
p4711
aa(lp4712
Voncoming-automobile
p4713
aV\U0001f698
p4714
aa(lp4715
Vrecreational-vehicle
p4716
aV\U0001f699
p4717
aa(lp4718
Vdelivery-truck
p4719
aV\U0001f69a
p4720
aa(lp4721
Varticulated-lorry
p4722
aV\U0001f69b
p4723
aa(lp4724
Vtractor
p4725
aV\U0001f69c
p4726
aa(lp4727
Vbicycle
p4728
aV\U0001f6b2
p4729
aa(lp4730
Vscooter
p4731
aV\U0001f6f4
p4732
aa(lp4733
Vmotor-scooter
p4734
aV\U0001f6f5
p4735
aa(lp4736
Vbus-stop
p4737
aV\U0001f68f
p4738
aa(lp4739
Vmotorway
p4740
aV\U0001f6e3
p4741
aa(lp4742
Vrailway-track
p4743
aV\U0001f6e4
p4744
aa(lp4745
Vfuel-pump
p4746
aV\u26fd
p4747
aa(lp4748
Vpolice-cars-revolving-light
p4749
aV\U0001f6a8
p4750
aa(lp4751
Vhorizontal-traffic-light
p4752
aV\U0001f6a5
p4753
aa(lp4754
Vvertical-traffic-light
p4755
aV\U0001f6a6
p4756
aa(lp4757
Vconstruction-sign
p4758
aV\U0001f6a7
p4759
aa(lp4760
Voctagonal-sign
p4761
aV\U0001f6d1
p4762
aa(lp4763
Vanchor
p4764
aV\u2693
p4765
aa(lp4766
Vsailboat
p4767
aV\u26f5
p4768
aa(lp4769
Vcanoe
p4770
aV\U0001f6f6
p4771
aa(lp4772
Vspeedboat
p4773
aV\U0001f6a4
p4774
aa(lp4775
Vpassenger-ship
p4776
aV\U0001f6f3
p4777
aa(lp4778
Vferry
p4779
aV\u26f4
p4780
aa(lp4781
Vmotor-boat
p4782
aV\U0001f6e5
p4783
aa(lp4784
Vship
p4785
aV\U0001f6a2
p4786
aa(lp4787
Vairplane
p4788
aV\u2708
p4789
aa(lp4790
Vsmall-airplane
p4791
aV\U0001f6e9
p4792
aa(lp4793
Vairplane-departure
p4794
aV\U0001f6eb
p4795
aa(lp4796
Vairplane-arriving
p4797
aV\U0001f6ec
p4798
aa(lp4799
Vseat
p4800
aV\U0001f4ba
p4801
aa(lp4802
Vhelicopter
p4803
aV\U0001f681
p4804
aa(lp4805
Vsuspension-railway
p4806
aV\U0001f69f
p4807
aa(lp4808
Vmountain-cableway
p4809
aV\U0001f6a0
p4810
aa(lp4811
Vaerial-tramway
p4812
aV\U0001f6a1
p4813
aa(lp4814
Vsatellite
p4815
aV\U0001f6f0
p4816
aa(lp4817
Vrocket
p4818
aV\U0001f680
p4819
aa(lp4820
Vbellhop-bell
p4821
aV\U0001f6ce
p4822
aa(lp4823
Vdoor
p4824
aV\U0001f6aa
p4825
aa(lp4826
Vbed
p4827
aV\U0001f6cf
p4828
aa(lp4829
Vcouch-and-lamp
p4830
aV\U0001f6cb
p4831
aa(lp4832
Vtoilet
p4833
aV\U0001f6bd
p4834
aa(lp4835
Vshower
p4836
aV\U0001f6bf
p4837
aa(lp4838
Vbathtub
p4839
aV\U0001f6c1
p4840
aa(lp4841
Vhourglass
p4842
aV\u231b
p4843
aa(lp4844
Vhourglass-with-flowing-sand
p4845
aV\u23f3
p4846
aa(lp4847
Vwatch
p4848
aV\u231a
p4849
aa(lp4850
Valarm-clock
p4851
aV\u23f0
p4852
aa(lp4853
Vstopwatch
p4854
aV\u23f1
p4855
aa(lp4856
Vtimer-clock
p4857
aV\u23f2
p4858
aa(lp4859
Vmantelpiece-clock
p4860
aV\U0001f570
p4861
aa(lp4862
Vclock-face-twelve-oclock
p4863
aV\U0001f55b
p4864
aa(lp4865
Vclock-face-twelve-thirty
p4866
aV\U0001f567
p4867
aa(lp4868
Vclock-face-one-oclock
p4869
aV\U0001f550
p4870
aa(lp4871
Vclock-face-one-thirty
p4872
aV\U0001f55c
p4873
aa(lp4874
Vclock-face-two-oclock
p4875
aV\U0001f551
p4876
aa(lp4877
Vclock-face-two-thirty
p4878
aV\U0001f55d
p4879
aa(lp4880
Vclock-face-three-oclock
p4881
aV\U0001f552
p4882
aa(lp4883
Vclock-face-three-thirty
p4884
aV\U0001f55e
p4885
aa(lp4886
Vclock-face-four-oclock
p4887
aV\U0001f553
p4888
aa(lp4889
Vclock-face-four-thirty
p4890
aV\U0001f55f
p4891
aa(lp4892
Vclock-face-five-oclock
p4893
aV\U0001f554
p4894
aa(lp4895
Vclock-face-five-thirty
p4896
aV\U0001f560
p4897
aa(lp4898
Vclock-face-six-oclock
p4899
aV\U0001f555
p4900
aa(lp4901
Vclock-face-six-thirty
p4902
aV\U0001f561
p4903
aa(lp4904
Vclock-face-seven-oclock
p4905
aV\U0001f556
p4906
aa(lp4907
Vclock-face-seven-thirty
p4908
aV\U0001f562
p4909
aa(lp4910
Vclock-face-eight-oclock
p4911
aV\U0001f557
p4912
aa(lp4913
Vclock-face-eight-thirty
p4914
aV\U0001f563
p4915
aa(lp4916
Vclock-face-nine-oclock
p4917
aV\U0001f558
p4918
aa(lp4919
Vclock-face-nine-thirty
p4920
aV\U0001f564
p4921
aa(lp4922
Vclock-face-ten-oclock
p4923
aV\U0001f559
p4924
aa(lp4925
Vclock-face-ten-thirty
p4926
aV\U0001f565
p4927
aa(lp4928
Vclock-face-eleven-oclock
p4929
aV\U0001f55a
p4930
aa(lp4931
Vclock-face-eleven-thirty
p4932
aV\U0001f566
p4933
aa(lp4934
Vnew-moon-symbol
p4935
aV\U0001f311
p4936
aa(lp4937
Vwaxing-crescent-moon-symbol
p4938
aV\U0001f312
p4939
aa(lp4940
Vfirst-quarter-moon-symbol
p4941
aV\U0001f313
p4942
aa(lp4943
Vwaxing-gibbous-moon-symbol
p4944
aV\U0001f314
p4945
aa(lp4946
Vfull-moon-symbol
p4947
aV\U0001f315
p4948
aa(lp4949
Vwaning-gibbous-moon-symbol
p4950
aV\U0001f316
p4951
aa(lp4952
Vlast-quarter-moon-symbol
p4953
aV\U0001f317
p4954
aa(lp4955
Vwaning-crescent-moon-symbol
p4956
aV\U0001f318
p4957
aa(lp4958
Vcrescent-moon
p4959
aV\U0001f319
p4960
aa(lp4961
Vnew-moon-with-face
p4962
aV\U0001f31a
p4963
aa(lp4964
Vfirst-quarter-moon-with-face
p4965
aV\U0001f31b
p4966
aa(lp4967
Vlast-quarter-moon-with-face
p4968
aV\U0001f31c
p4969
aa(lp4970
Vthermometer
p4971
aV\U0001f321
p4972
aa(lp4973
Vblack-sun-with-rays
p4974
aV\u2600
p4975
aa(lp4976
Vfull-moon-with-face
p4977
aV\U0001f31d
p4978
aa(lp4979
Vsun-with-face
p4980
aV\U0001f31e
p4981
aa(lp4982
Vwhite-medium-star
p4983
aV\u2b50
p4984
aa(lp4985
Vglowing-star
p4986
aV\U0001f31f
p4987
aa(lp4988
Vshooting-star
p4989
aV\U0001f320
p4990
aa(lp4991
Vcloud
p4992
aV\u2601
p4993
aa(lp4994
Vsun-behind-cloud
p4995
aV\u26c5
p4996
aa(lp4997
Vthunder-cloud-and-rain
p4998
aV\u26c8
p4999
aa(lp5000
Vwhite-sun-with-small-cloud
p5001
aV\U0001f324
p5002
aa(lp5003
Vwhite-sun-behind-cloud
p5004
aV\U0001f325
p5005
aa(lp5006
Vwhite-sun-behind-cloud-with-rain
p5007
aV\U0001f326
p5008
aa(lp5009
Vcloud-with-rain
p5010
aV\U0001f327
p5011
aa(lp5012
Vcloud-with-snow
p5013
aV\U0001f328
p5014
aa(lp5015
Vcloud-with-lightning
p5016
aV\U0001f329
p5017
aa(lp5018
Vcloud-with-tornado
p5019
aV\U0001f32a
p5020
aa(lp5021
Vfog
p5022
aV\U0001f32b
p5023
aa(lp5024
Vwind-blowing-face
p5025
aV\U0001f32c
p5026
aa(lp5027
Vcyclone
p5028
aV\U0001f300
p5029
aa(lp5030
Vrainbow
p5031
aV\U0001f308
p5032
aa(lp5033
Vclosed-umbrella
p5034
aV\U0001f302
p5035
aa(lp5036
Vumbrella
p5037
aV\u2602
p5038
aa(lp5039
Vumbrella-with-rain-drops
p5040
aV\u2614
p5041
aa(lp5042
Vumbrella-on-ground
p5043
aV\u26f1
p5044
aa(lp5045
Vhigh-voltage-sign
p5046
aV\u26a1
p5047
aa(lp5048
Vsnowflake
p5049
aV\u2744
p5050
aa(lp5051
Vsnowman
p5052
aV\u2603
p5053
aa(lp5054
Vsnowman-without-snow
p5055
aV\u26c4
p5056
aa(lp5057
Vcomet
p5058
aV\u2604
p5059
aa(lp5060
Vfire
p5061
aV\U0001f525
p5062
aa(lp5063
Vdroplet
p5064
aV\U0001f4a7
p5065
aa(lp5066
Vwater-wave
p5067
aV\U0001f30a
p5068
aa(lp5069
Vjack-o-lantern
p5070
aV\U0001f383
p5071
aa(lp5072
Vchristmas-tree
p5073
aV\U0001f384
p5074
aa(lp5075
Vfireworks
p5076
aV\U0001f386
p5077
aa(lp5078
Vfirework-sparkler
p5079
aV\U0001f387
p5080
aa(lp5081
Vsparkles
p5082
aV\u2728
p5083
aa(lp5084
Vballoon
p5085
aV\U0001f388
p5086
aa(lp5087
Vparty-popper
p5088
aV\U0001f389
p5089
aa(lp5090
Vconfetti-ball
p5091
aV\U0001f38a
p5092
aa(lp5093
Vtanabata-tree
p5094
aV\U0001f38b
p5095
aa(lp5096
Vpine-decoration
p5097
aV\U0001f38d
p5098
aa(lp5099
Vjapanese-dolls
p5100
aV\U0001f38e
p5101
aa(lp5102
Vcarp-streamer
p5103
aV\U0001f38f
p5104
aa(lp5105
Vwind-chime
p5106
aV\U0001f390
p5107
aa(lp5108
Vmoon-viewing-ceremony
p5109
aV\U0001f391
p5110
aa(lp5111
Vribbon
p5112
aV\U0001f380
p5113
aa(lp5114
Vwrapped-present
p5115
aV\U0001f381
p5116
aa(lp5117
Vreminder-ribbon
p5118
aV\U0001f397
p5119
aa(lp5120
Vadmission-tickets
p5121
aV\U0001f39f
p5122
aa(lp5123
Vticket
p5124
aV\U0001f3ab
p5125
aa(lp5126
Vmilitary-medal
p5127
aV\U0001f396
p5128
aa(lp5129
Vtrophy
p5130
aV\U0001f3c6
p5131
aa(lp5132
Vsports-medal
p5133
aV\U0001f3c5
p5134
aa(lp5135
Vfirst-place-medal
p5136
aV\U0001f947
p5137
aa(lp5138
Vsecond-place-medal
p5139
aV\U0001f948
p5140
aa(lp5141
Vthird-place-medal
p5142
aV\U0001f949
p5143
aa(lp5144
Vsoccer-ball
p5145
aV\u26bd
p5146
aa(lp5147
Vbaseball
p5148
aV\u26be
p5149
aa(lp5150
Vbasketball-and-hoop
p5151
aV\U0001f3c0
p5152
aa(lp5153
Vvolleyball
p5154
aV\U0001f3d0
p5155
aa(lp5156
Vamerican-football
p5157
aV\U0001f3c8
p5158
aa(lp5159
Vrugby-football
p5160
aV\U0001f3c9
p5161
aa(lp5162
Vtennis-racquet-and-ball
p5163
aV\U0001f3be
p5164
aa(lp5165
Vbilliards
p5166
aV\U0001f3b1
p5167
aa(lp5168
Vbowling
p5169
aV\U0001f3b3
p5170
aa(lp5171
Vcricket-bat-and-ball
p5172
aV\U0001f3cf
p5173
aa(lp5174
Vfield-hockey-stick-and-ball
p5175
aV\U0001f3d1
p5176
aa(lp5177
Vice-hockey-stick-and-puck
p5178
aV\U0001f3d2
p5179
aa(lp5180
Vtable-tennis-paddle-and-ball
p5181
aV\U0001f3d3
p5182
aa(lp5183
Vbadminton-racquet-and-shuttlecock
p5184
aV\U0001f3f8
p5185
aa(lp5186
Vboxing-glove
p5187
aV\U0001f94a
p5188
aa(lp5189
Vmartial-arts-uniform
p5190
aV\U0001f94b
p5191
aa(lp5192
Vgoal-net
p5193
aV\U0001f945
p5194
aa(lp5195
Vdirect-hit
p5196
aV\U0001f3af
p5197
aa(lp5198
Vflag-in-hole
p5199
aV\u26f3
p5200
aa(lp5201
Vice-skate
p5202
aV\u26f8
p5203
aa(lp5204
Vfishing-pole-and-fish
p5205
aV\U0001f3a3
p5206
aa(lp5207
Vrunning-shirt-with-sash
p5208
aV\U0001f3bd
p5209
aa(lp5210
Vski-and-ski-boot
p5211
aV\U0001f3bf
p5212
aa(lp5213
Vvideo-game
p5214
aV\U0001f3ae
p5215
aa(lp5216
Vjoystick
p5217
aV\U0001f579
p5218
aa(lp5219
Vgame-die
p5220
aV\U0001f3b2
p5221
aa(lp5222
Vblack-spade-suit
p5223
aV\u2660
p5224
aa(lp5225
Vblack-heart-suit
p5226
aV\u2665
p5227
aa(lp5228
Vblack-diamond-suit
p5229
aV\u2666
p5230
aa(lp5231
Vblack-club-suit
p5232
aV\u2663
p5233
aa(lp5234
Vplaying-card-black-joker
p5235
aV\U0001f0cf
p5236
aa(lp5237
Vmahjong-tile-red-dragon
p5238
aV\U0001f004
p5239
aa(lp5240
Vflower-playing-cards
p5241
aV\U0001f3b4
p5242
aa(lp5243
Vspeaker-with-cancellation-stroke
p5244
aV\U0001f507
p5245
aa(lp5246
Vspeaker
p5247
aV\U0001f508
p5248
aa(lp5249
Vspeaker-with-one-sound-wave
p5250
aV\U0001f509
p5251
aa(lp5252
Vspeaker-with-three-sound-waves
p5253
aV\U0001f50a
p5254
aa(lp5255
Vpublic-address-loudspeaker
p5256
aV\U0001f4e2
p5257
aa(lp5258
Vcheering-megaphone
p5259
aV\U0001f4e3
p5260
aa(lp5261
Vpostal-horn
p5262
aV\U0001f4ef
p5263
aa(lp5264
Vbell
p5265
aV\U0001f514
p5266
aa(lp5267
Vbell-with-cancellation-stroke
p5268
aV\U0001f515
p5269
aa(lp5270
Vmusical-score
p5271
aV\U0001f3bc
p5272
aa(lp5273
Vmusical-note
p5274
aV\U0001f3b5
p5275
aa(lp5276
Vmultiple-musical-notes
p5277
aV\U0001f3b6
p5278
aa(lp5279
Vstudio-microphone
p5280
aV\U0001f399
p5281
aa(lp5282
Vlevel-slider
p5283
aV\U0001f39a
p5284
aa(lp5285
Vcontrol-knobs
p5286
aV\U0001f39b
p5287
aa(lp5288
Vmicrophone
p5289
aV\U0001f3a4
p5290
aa(lp5291
Vheadphone
p5292
aV\U0001f3a7
p5293
aa(lp5294
Vradio
p5295
aV\U0001f4fb
p5296
aa(lp5297
Vsaxophone
p5298
aV\U0001f3b7
p5299
aa(lp5300
Vguitar
p5301
aV\U0001f3b8
p5302
aa(lp5303
Vmusical-keyboard
p5304
aV\U0001f3b9
p5305
aa(lp5306
Vtrumpet
p5307
aV\U0001f3ba
p5308
aa(lp5309
Vviolin
p5310
aV\U0001f3bb
p5311
aa(lp5312
Vdrum-with-drumsticks
p5313
aV\U0001f941
p5314
aa(lp5315
Vmobile-phone
p5316
aV\U0001f4f1
p5317
aa(lp5318
Vmobile-phone-with-rightwards-arrow-at-left
p5319
aV\U0001f4f2
p5320
aa(lp5321
Vblack-telephone
p5322
aV\u260e
p5323
aa(lp5324
Vtelephone-receiver
p5325
aV\U0001f4de
p5326
aa(lp5327
Vpager
p5328
aV\U0001f4df
p5329
aa(lp5330
Vfax-machine
p5331
aV\U0001f4e0
p5332
aa(lp5333
Vbattery
p5334
aV\U0001f50b
p5335
aa(lp5336
Velectric-plug
p5337
aV\U0001f50c
p5338
aa(lp5339
Vpersonal-computer
p5340
aV\U0001f4bb
p5341
aa(lp5342
Vdesktop-computer
p5343
aV\U0001f5a5
p5344
aa(lp5345
Vprinter
p5346
aV\U0001f5a8
p5347
aa(lp5348
Vkeyboard
p5349
aV\u2328
p5350
aa(lp5351
Vthree-button-mouse
p5352
aV\U0001f5b1
p5353
aa(lp5354
Vtrackball
p5355
aV\U0001f5b2
p5356
aa(lp5357
Vminidisc
p5358
aV\U0001f4bd
p5359
aa(lp5360
Vfloppy-disk
p5361
aV\U0001f4be
p5362
aa(lp5363
Voptical-disc
p5364
aV\U0001f4bf
p5365
aa(lp5366
Vdvd
p5367
aV\U0001f4c0
p5368
aa(lp5369
Vmovie-camera
p5370
aV\U0001f3a5
p5371
aa(lp5372
Vfilm-frames
p5373
aV\U0001f39e
p5374
aa(lp5375
Vfilm-projector
p5376
aV\U0001f4fd
p5377
aa(lp5378
Vclapper-board
p5379
aV\U0001f3ac
p5380
aa(lp5381
Vtelevision
p5382
aV\U0001f4fa
p5383
aa(lp5384
Vcamera
p5385
aV\U0001f4f7
p5386
aa(lp5387
Vcamera-with-flash
p5388
aV\U0001f4f8
p5389
aa(lp5390
Vvideo-camera
p5391
aV\U0001f4f9
p5392
aa(lp5393
Vvideocassette
p5394
aV\U0001f4fc
p5395
aa(lp5396
Vleft-pointing-magnifying-glass
p5397
aV\U0001f50d
p5398
aa(lp5399
Vright-pointing-magnifying-glass
p5400
aV\U0001f50e
p5401
aa(lp5402
Vmicroscope
p5403
aV\U0001f52c
p5404
aa(lp5405
Vtelescope
p5406
aV\U0001f52d
p5407
aa(lp5408
Vsatellite-antenna
p5409
aV\U0001f4e1
p5410
aa(lp5411
Vcandle
p5412
aV\U0001f56f
p5413
aa(lp5414
Velectric-light-bulb
p5415
aV\U0001f4a1
p5416
aa(lp5417
Velectric-torch
p5418
aV\U0001f526
p5419
aa(lp5420
Vizakaya-lantern
p5421
aV\U0001f3ee
p5422
aa(lp5423
Vnotebook-with-decorative-cover
p5424
aV\U0001f4d4
p5425
aa(lp5426
Vclosed-book
p5427
aV\U0001f4d5
p5428
aa(lp5429
Vopen-book
p5430
aV\U0001f4d6
p5431
aa(lp5432
Vgreen-book
p5433
aV\U0001f4d7
p5434
aa(lp5435
Vblue-book
p5436
aV\U0001f4d8
p5437
aa(lp5438
Vorange-book
p5439
aV\U0001f4d9
p5440
aa(lp5441
Vbooks
p5442
aV\U0001f4da
p5443
aa(lp5444
Vnotebook
p5445
aV\U0001f4d3
p5446
aa(lp5447
Vledger
p5448
aV\U0001f4d2
p5449
aa(lp5450
Vpage-with-curl
p5451
aV\U0001f4c3
p5452
aa(lp5453
Vscroll
p5454
aV\U0001f4dc
p5455
aa(lp5456
Vpage-facing-up
p5457
aV\U0001f4c4
p5458
aa(lp5459
Vnewspaper
p5460
aV\U0001f4f0
p5461
aa(lp5462
Vrolled-up-newspaper
p5463
aV\U0001f5de
p5464
aa(lp5465
Vbookmark-tabs
p5466
aV\U0001f4d1
p5467
aa(lp5468
Vbookmark
p5469
aV\U0001f516
p5470
aa(lp5471
Vlabel
p5472
aV\U0001f3f7
p5473
aa(lp5474
Vmoney-bag
p5475
aV\U0001f4b0
p5476
aa(lp5477
Vbanknote-with-yen-sign
p5478
aV\U0001f4b4
p5479
aa(lp5480
Vbanknote-with-dollar-sign
p5481
aV\U0001f4b5
p5482
aa(lp5483
Vbanknote-with-euro-sign
p5484
aV\U0001f4b6
p5485
aa(lp5486
Vbanknote-with-pound-sign
p5487
aV\U0001f4b7
p5488
aa(lp5489
Vmoney-with-wings
p5490
aV\U0001f4b8
p5491
aa(lp5492
Vcredit-card
p5493
aV\U0001f4b3
p5494
aa(lp5495
Vchart-with-upwards-trend-and-yen-sign
p5496
aV\U0001f4b9
p5497
aa(lp5498
Vcurrency-exchange
p5499
aV\U0001f4b1
p5500
aa(lp5501
Vheavy-dollar-sign
p5502
aV\U0001f4b2
p5503
aa(lp5504
Venvelope
p5505
aV\u2709
p5506
aa(lp5507
Ve-mail-symbol
p5508
aV\U0001f4e7
p5509
aa(lp5510
Vincoming-envelope
p5511
aV\U0001f4e8
p5512
aa(lp5513
Venvelope-with-downwards-arrow-above
p5514
aV\U0001f4e9
p5515
aa(lp5516
Voutbox-tray
p5517
aV\U0001f4e4
p5518
aa(lp5519
Vinbox-tray
p5520
aV\U0001f4e5
p5521
aa(lp5522
Vpackage
p5523
aV\U0001f4e6
p5524
aa(lp5525
Vclosed-mailbox-with-raised-flag
p5526
aV\U0001f4eb
p5527
aa(lp5528
Vclosed-mailbox-with-lowered-flag
p5529
aV\U0001f4ea
p5530
aa(lp5531
Vopen-mailbox-with-raised-flag
p5532
aV\U0001f4ec
p5533
aa(lp5534
Vopen-mailbox-with-lowered-flag
p5535
aV\U0001f4ed
p5536
aa(lp5537
Vpostbox
p5538
aV\U0001f4ee
p5539
aa(lp5540
Vballot-box-with-ballot
p5541
aV\U0001f5f3
p5542
aa(lp5543
Vpencil
p5544
aV\u270f
p5545
aa(lp5546
Vblack-nib
p5547
aV\u2712
p5548
aa(lp5549
Vlower-left-fountain-pen
p5550
aV\U0001f58b
p5551
aa(lp5552
Vlower-left-ballpoint-pen
p5553
aV\U0001f58a
p5554
aa(lp5555
Vlower-left-paintbrush
p5556
aV\U0001f58c
p5557
aa(lp5558
Vlower-left-crayon
p5559
aV\U0001f58d
p5560
aa(lp5561
Vmemo
p5562
aV\U0001f4dd
p5563
aa(lp5564
Vbriefcase
p5565
aV\U0001f4bc
p5566
aa(lp5567
Vfile-folder
p5568
aV\U0001f4c1
p5569
aa(lp5570
Vopen-file-folder
p5571
aV\U0001f4c2
p5572
aa(lp5573
Vcard-index-dividers
p5574
aV\U0001f5c2
p5575
aa(lp5576
Vcalendar
p5577
aV\U0001f4c5
p5578
aa(lp5579
Vtear-off-calendar
p5580
aV\U0001f4c6
p5581
aa(lp5582
Vspiral-note-pad
p5583
aV\U0001f5d2
p5584
aa(lp5585
Vspiral-calendar-pad
p5586
aV\U0001f5d3
p5587
aa(lp5588
Vcard-index
p5589
aV\U0001f4c7
p5590
aa(lp5591
Vchart-with-upwards-trend
p5592
aV\U0001f4c8
p5593
aa(lp5594
Vchart-with-downwards-trend
p5595
aV\U0001f4c9
p5596
aa(lp5597
Vbar-chart
p5598
aV\U0001f4ca
p5599
aa(lp5600
Vclipboard
p5601
aV\U0001f4cb
p5602
aa(lp5603
Vpushpin
p5604
aV\U0001f4cc
p5605
aa(lp5606
Vround-pushpin
p5607
aV\U0001f4cd
p5608
aa(lp5609
Vpaperclip
p5610
aV\U0001f4ce
p5611
aa(lp5612
Vlinked-paperclips
p5613
aV\U0001f587
p5614
aa(lp5615
Vstraight-ruler
p5616
aV\U0001f4cf
p5617
aa(lp5618
Vtriangular-ruler
p5619
aV\U0001f4d0
p5620
aa(lp5621
Vblack-scissors
p5622
aV\u2702
p5623
aa(lp5624
Vcard-file-box
p5625
aV\U0001f5c3
p5626
aa(lp5627
Vfile-cabinet
p5628
aV\U0001f5c4
p5629
aa(lp5630
Vwastebasket
p5631
aV\U0001f5d1
p5632
aa(lp5633
Vlock
p5634
aV\U0001f512
p5635
aa(lp5636
Vopen-lock
p5637
aV\U0001f513
p5638
aa(lp5639
Vlock-with-ink-pen
p5640
aV\U0001f50f
p5641
aa(lp5642
Vclosed-lock-with-key
p5643
aV\U0001f510
p5644
aa(lp5645
Vkey
p5646
aV\U0001f511
p5647
aa(lp5648
Vold-key
p5649
aV\U0001f5dd
p5650
aa(lp5651
Vhammer
p5652
aV\U0001f528
p5653
aa(lp5654
Vpick
p5655
aV\u26cf
p5656
aa(lp5657
Vhammer-and-pick
p5658
aV\u2692
p5659
aa(lp5660
Vhammer-and-wrench
p5661
aV\U0001f6e0
p5662
aa(lp5663
Vdagger-knife
p5664
aV\U0001f5e1
p5665
aa(lp5666
Vcrossed-swords
p5667
aV\u2694
p5668
aa(lp5669
Vpistol
p5670
aV\U0001f52b
p5671
aa(lp5672
Vbow-and-arrow
p5673
aV\U0001f3f9
p5674
aa(lp5675
Vshield
p5676
aV\U0001f6e1
p5677
aa(lp5678
Vwrench
p5679
aV\U0001f527
p5680
aa(lp5681
Vnut-and-bolt
p5682
aV\U0001f529
p5683
aa(lp5684
Vgear
p5685
aV\u2699
p5686
aa(lp5687
Vcompression
p5688
aV\U0001f5dc
p5689
aa(lp5690
Valembic
p5691
aV\u2697
p5692
aa(lp5693
Vscales
p5694
aV\u2696
p5695
aa(lp5696
Vlink-symbol
p5697
aV\U0001f517
p5698
aa(lp5699
Vchains
p5700
aV\u26d3
p5701
aa(lp5702
Vsyringe
p5703
aV\U0001f489
p5704
aa(lp5705
Vpill
p5706
aV\U0001f48a
p5707
aa(lp5708
Vsmoking-symbol
p5709
aV\U0001f6ac
p5710
aa(lp5711
Vcoffin
p5712
aV\u26b0
p5713
aa(lp5714
Vfuneral-urn
p5715
aV\u26b1
p5716
aa(lp5717
Vmoyai
p5718
aV\U0001f5ff
p5719
aa(lp5720
Voil-drum
p5721
aV\U0001f6e2
p5722
aa(lp5723
Vcrystal-ball
p5724
aV\U0001f52e
p5725
aa(lp5726
Vshopping-trolley
p5727
aV\U0001f6d2
p5728
aa(lp5729
Vautomated-teller-machine
p5730
aV\U0001f3e7
p5731
aa(lp5732
Vput-litter-in-its-place-symbol
p5733
aV\U0001f6ae
p5734
aa(lp5735
Vpotable-water-symbol
p5736
aV\U0001f6b0
p5737
aa(lp5738
Vwheelchair-symbol
p5739
aV\u267f
p5740
aa(lp5741
Vmens-symbol
p5742
aV\U0001f6b9
p5743
aa(lp5744
Vwomens-symbol
p5745
aV\U0001f6ba
p5746
aa(lp5747
Vrestroom
p5748
aV\U0001f6bb
p5749
aa(lp5750
Vbaby-symbol
p5751
aV\U0001f6bc
p5752
aa(lp5753
Vwater-closet
p5754
aV\U0001f6be
p5755
aa(lp5756
Vpassport-control
p5757
aV\U0001f6c2
p5758
aa(lp5759
Vcustoms
p5760
aV\U0001f6c3
p5761
aa(lp5762
Vbaggage-claim
p5763
aV\U0001f6c4
p5764
aa(lp5765
Vleft-luggage
p5766
aV\U0001f6c5
p5767
aa(lp5768
Vwarning-sign
p5769
aV\u26a0
p5770
aa(lp5771
Vchildren-crossing
p5772
aV\U0001f6b8
p5773
aa(lp5774
Vno-entry
p5775
aV\u26d4
p5776
aa(lp5777
Vno-entry-sign
p5778
aV\U0001f6ab
p5779
aa(lp5780
Vno-bicycles
p5781
aV\U0001f6b3
p5782
aa(lp5783
Vno-smoking-symbol
p5784
aV\U0001f6ad
p5785
aa(lp5786
Vdo-not-litter-symbol
p5787
aV\U0001f6af
p5788
aa(lp5789
Vnon-potable-water-symbol
p5790
aV\U0001f6b1
p5791
aa(lp5792
Vno-pedestrians
p5793
aV\U0001f6b7
p5794
aa(lp5795
Vno-mobile-phones
p5796
aV\U0001f4f5
p5797
aa(lp5798
Vno-one-under-eighteen-symbol
p5799
aV\U0001f51e
p5800
aa(lp5801
Vradioactive-sign
p5802
aV\u2622
p5803
aa(lp5804
Vbiohazard-sign
p5805
aV\u2623
p5806
aa(lp5807
Vupwards-black-arrow
p5808
aV\u2b06
p5809
aa(lp5810
Vnorth-east-arrow
p5811
aV\u2197
p5812
aa(lp5813
Vblack-rightwards-arrow
p5814
aV\u27a1
p5815
aa(lp5816
Vsouth-east-arrow
p5817
aV\u2198
p5818
aa(lp5819
Vdownwards-black-arrow
p5820
aV\u2b07
p5821
aa(lp5822
Vsouth-west-arrow
p5823
aV\u2199
p5824
aa(lp5825
Vleftwards-black-arrow
p5826
aV\u2b05
p5827
aa(lp5828
Vnorth-west-arrow
p5829
aV\u2196
p5830
aa(lp5831
Vup-down-arrow
p5832
aV\u2195
p5833
aa(lp5834
Vleft-right-arrow
p5835
aV\u2194
p5836
aa(lp5837
Vleftwards-arrow-with-hook
p5838
aV\u21a9
p5839
aa(lp5840
Vrightwards-arrow-with-hook
p5841
aV\u21aa
p5842
aa(lp5843
Varrow-pointing-rightwards-then-curving-upwards
p5844
aV\u2934
p5845
aa(lp5846
Varrow-pointing-rightwards-then-curving-downwards
p5847
aV\u2935
p5848
aa(lp5849
Vclockwise-downwards-and-upwards-open-circle-arrows
p5850
aV\U0001f503
p5851
aa(lp5852
Vanticlockwise-downwards-and-upwards-open-circle-arrows
p5853
aV\U0001f504
p5854
aa(lp5855
Vback-with-leftwards-arrow-above
p5856
aV\U0001f519
p5857
aa(lp5858
Vend-with-leftwards-arrow-above
p5859
aV\U0001f51a
p5860
aa(lp5861
Von-with-exclamation-mark-with-left-right-arrow-above
p5862
aV\U0001f51b
p5863
aa(lp5864
Vsoon-with-rightwards-arrow-above
p5865
aV\U0001f51c
p5866
aa(lp5867
Vtop-with-upwards-arrow-above
p5868
aV\U0001f51d
p5869
aa(lp5870
Vplace-of-worship
p5871
aV\U0001f6d0
p5872
aa(lp5873
Vatom-symbol
p5874
aV\u269b
p5875
aa(lp5876
Vom-symbol
p5877
aV\U0001f549
p5878
aa(lp5879
Vstar-of-david
p5880
aV\u2721
p5881
aa(lp5882
Vwheel-of-dharma
p5883
aV\u2638
p5884
aa(lp5885
Vyin-yang
p5886
aV\u262f
p5887
aa(lp5888
Vlatin-cross
p5889
aV\u271d
p5890
aa(lp5891
Vorthodox-cross
p5892
aV\u2626
p5893
aa(lp5894
Vstar-and-crescent
p5895
aV\u262a
p5896
aa(lp5897
Vpeace-symbol
p5898
aV\u262e
p5899
aa(lp5900
Vmenorah-with-nine-branches
p5901
aV\U0001f54e
p5902
aa(lp5903
Vsix-pointed-star-with-middle-dot
p5904
aV\U0001f52f
p5905
aa(lp5906
Varies
p5907
aV\u2648
p5908
aa(lp5909
Vtaurus
p5910
aV\u2649
p5911
aa(lp5912
Vgemini
p5913
aV\u264a
p5914
aa(lp5915
Vcancer
p5916
aV\u264b
p5917
aa(lp5918
Vleo
p5919
aV\u264c
p5920
aa(lp5921
Vvirgo
p5922
aV\u264d
p5923
aa(lp5924
Vlibra
p5925
aV\u264e
p5926
aa(lp5927
Vscorpius
p5928
aV\u264f
p5929
aa(lp5930
Vsagittarius
p5931
aV\u2650
p5932
aa(lp5933
Vcapricorn
p5934
aV\u2651
p5935
aa(lp5936
Vaquarius
p5937
aV\u2652
p5938
aa(lp5939
Vpisces
p5940
aV\u2653
p5941
aa(lp5942
Vophiuchus
p5943
aV\u26ce
p5944
aa(lp5945
Vtwisted-rightwards-arrows
p5946
aV\U0001f500
p5947
aa(lp5948
Vclockwise-rightwards-and-leftwards-open-circle-arrows
p5949
aV\U0001f501
p5950
aa(lp5951
Vclockwise-rightwards-and-leftwards-open-circle-arrows-with-circled-one-overlay
p5952
aV\U0001f502
p5953
aa(lp5954
Vblack-right-pointing-triangle
p5955
aV\u25b6
p5956
aa(lp5957
Vblack-right-pointing-double-triangle
p5958
aV\u23e9
p5959
aa(lp5960
Vblack-right-pointing-double-triangle-with-vertical-bar
p5961
aV\u23ed
p5962
aa(lp5963
Vblack-right-pointing-triangle-with-double-vertical-bar
p5964
aV\u23ef
p5965
aa(lp5966
Vblack-left-pointing-triangle
p5967
aV\u25c0
p5968
aa(lp5969
Vblack-left-pointing-double-triangle
p5970
aV\u23ea
p5971
aa(lp5972
Vblack-left-pointing-double-triangle-with-vertical-bar
p5973
aV\u23ee
p5974
aa(lp5975
Vup-pointing-small-red-triangle
p5976
aV\U0001f53c
p5977
aa(lp5978
Vblack-up-pointing-double-triangle
p5979
aV\u23eb
p5980
aa(lp5981
Vdown-pointing-small-red-triangle
p5982
aV\U0001f53d
p5983
aa(lp5984
Vblack-down-pointing-double-triangle
p5985
aV\u23ec
p5986
aa(lp5987
Vdouble-vertical-bar
p5988
aV\u23f8
p5989
aa(lp5990
Vblack-square-for-stop
p5991
aV\u23f9
p5992
aa(lp5993
Vblack-circle-for-record
p5994
aV\u23fa
p5995
aa(lp5996
Vcinema
p5997
aV\U0001f3a6
p5998
aa(lp5999
Vlow-brightness-symbol
p6000
aV\U0001f505
p6001
aa(lp6002
Vhigh-brightness-symbol
p6003
aV\U0001f506
p6004
aa(lp6005
Vantenna-with-bars
p6006
aV\U0001f4f6
p6007
aa(lp6008
Vvibration-mode
p6009
aV\U0001f4f3
p6010
aa(lp6011
Vmobile-phone-off
p6012
aV\U0001f4f4
p6013
aa(lp6014
Vstaff-of-aesculapius
p6015
aV\u2695
p6016
aa(lp6017
Vblack-universal-recycling-symbol
p6018
aV\u267b
p6019
aa(lp6020
Vfleur-de-lis
p6021
aV\u269c
p6022
aa(lp6023
Vtrident-emblem
p6024
aV\U0001f531
p6025
aa(lp6026
Vname-badge
p6027
aV\U0001f4db
p6028
aa(lp6029
Vjapanese-symbol-for-beginner
p6030
aV\U0001f530
p6031
aa(lp6032
Vheavy-large-circle
p6033
aV\u2b55
p6034
aa(lp6035
Vwhite-heavy-check-mark
p6036
aV\u2705
p6037
aa(lp6038
Vballot-box-with-check
p6039
aV\u2611
p6040
aa(lp6041
Vheavy-check-mark
p6042
aV\u2714
p6043
aa(lp6044
Vheavy-multiplication-x
p6045
aV\u2716
p6046
aa(lp6047
Vcross-mark
p6048
aV\u274c
p6049
aa(lp6050
Vnegative-squared-cross-mark
p6051
aV\u274e
p6052
aa(lp6053
Vheavy-plus-sign
p6054
aV\u2795
p6055
aa(lp6056
Vheavy-minus-sign
p6057
aV\u2796
p6058
aa(lp6059
Vheavy-division-sign
p6060
aV\u2797
p6061
aa(lp6062
Vcurly-loop
p6063
aV\u27b0
p6064
aa(lp6065
Vdouble-curly-loop
p6066
aV\u27bf
p6067
aa(lp6068
Vpart-alternation-mark
p6069
aV\u303d
p6070
aa(lp6071
Veight-spoked-asterisk
p6072
aV\u2733
p6073
aa(lp6074
Veight-pointed-black-star
p6075
aV\u2734
p6076
aa(lp6077
Vsparkle
p6078
aV\u2747
p6079
aa(lp6080
Vdouble-exclamation-mark
p6081
aV\u203c
p6082
aa(lp6083
Vexclamation-question-mark
p6084
aV\u2049
p6085
aa(lp6086
Vblack-question-mark-ornament
p6087
aV\u2753
p6088
aa(lp6089
Vwhite-question-mark-ornament
p6090
aV\u2754
p6091
aa(lp6092
Vwhite-exclamation-mark-ornament
p6093
aV\u2755
p6094
aa(lp6095
Vheavy-exclamation-mark-symbol
p6096
aV\u2757
p6097
aa(lp6098
Vwavy-dash
p6099
aV\u3030
p6100
aa(lp6101
Vcopyright-sign
p6102
aV
p6103
aa(lp6104
Vregistered-sign
p6105
aV
p6106
aa(lp6107
Vtrade-mark-sign
p6108
aV\u2122
p6109
aa(lp6110
Vkeycap-number-sign
p6111
aV#\ufe0f\u20e3
p6112
aa(lp6113
Vkeycap-asterisk
p6114
aV*\ufe0f\u20e3
p6115
aa(lp6116
Vkeycap-digit-zero
p6117
aV0\ufe0f\u20e3
p6118
aa(lp6119
Vkeycap-digit-one
p6120
aV1\ufe0f\u20e3
p6121
aa(lp6122
Vkeycap-digit-two
p6123
aV2\ufe0f\u20e3
p6124
aa(lp6125
Vkeycap-digit-three
p6126
aV3\ufe0f\u20e3
p6127
aa(lp6128
Vkeycap-digit-four
p6129
aV4\ufe0f\u20e3
p6130
aa(lp6131
Vkeycap-digit-five
p6132
aV5\ufe0f\u20e3
p6133
aa(lp6134
Vkeycap-digit-six
p6135
aV6\ufe0f\u20e3
p6136
aa(lp6137
Vkeycap-digit-seven
p6138
aV7\ufe0f\u20e3
p6139
aa(lp6140
Vkeycap-digit-eight
p6141
aV8\ufe0f\u20e3
p6142
aa(lp6143
Vkeycap-digit-nine
p6144
aV9\ufe0f\u20e3
p6145
aa(lp6146
Vkeycap-ten
p6147
aV\U0001f51f
p6148
aa(lp6149
Vhundred-points-symbol
p6150
aV\U0001f4af
p6151
aa(lp6152
Vinput-symbol-for-latin-capital-letters
p6153
aV\U0001f520
p6154
aa(lp6155
Vinput-symbol-for-latin-small-letters
p6156
aV\U0001f521
p6157
aa(lp6158
Vinput-symbol-for-numbers
p6159
aV\U0001f522
p6160
aa(lp6161
Vinput-symbol-for-symbols
p6162
aV\U0001f523
p6163
aa(lp6164
Vinput-symbol-for-latin-letters
p6165
aV\U0001f524
p6166
aa(lp6167
Vnegative-squared-latin-capital-letter-a
p6168
aV\U0001f170
p6169
aa(lp6170
Vnegative-squared-ab
p6171
aV\U0001f18e
p6172
aa(lp6173
Vnegative-squared-latin-capital-letter-b
p6174
aV\U0001f171
p6175
aa(lp6176
Vsquared-cl
p6177
aV\U0001f191
p6178
aa(lp6179
Vsquared-cool
p6180
aV\U0001f192
p6181
aa(lp6182
Vsquared-free
p6183
aV\U0001f193
p6184
aa(lp6185
Vinformation-source
p6186
aV\u2139
p6187
aa(lp6188
Vsquared-id
p6189
aV\U0001f194
p6190
aa(lp6191
Vcircled-latin-capital-letter-m
p6192
aV\u24c2
p6193
aa(lp6194
Vsquared-new
p6195
aV\U0001f195
p6196
aa(lp6197
Vsquared-ng
p6198
aV\U0001f196
p6199
aa(lp6200
Vnegative-squared-latin-capital-letter-o
p6201
aV\U0001f17e
p6202
aa(lp6203
Vsquared-ok
p6204
aV\U0001f197
p6205
aa(lp6206
Vnegative-squared-latin-capital-letter-p
p6207
aV\U0001f17f
p6208
aa(lp6209
Vsquared-sos
p6210
aV\U0001f198
p6211
aa(lp6212
Vsquared-up-with-exclamation-mark
p6213
aV\U0001f199
p6214
aa(lp6215
Vsquared-vs
p6216
aV\U0001f19a
p6217
aa(lp6218
Vsquared-katakana-koko
p6219
aV\U0001f201
p6220
aa(lp6221
Vsquared-katakana-sa
p6222
aV\U0001f202
p6223
aa(lp6224
Vsquared-cjk-unified-ideograph-6708
p6225
aV\U0001f237
p6226
aa(lp6227
Vsquared-cjk-unified-ideograph-6709
p6228
aV\U0001f236
p6229
aa(lp6230
Vsquared-cjk-unified-ideograph-6307
p6231
aV\U0001f22f
p6232
aa(lp6233
Vcircled-ideograph-advantage
p6234
aV\U0001f250
p6235
aa(lp6236
Vsquared-cjk-unified-ideograph-5272
p6237
aV\U0001f239
p6238
aa(lp6239
Vsquared-cjk-unified-ideograph-7121
p6240
aV\U0001f21a
p6241
aa(lp6242
Vsquared-cjk-unified-ideograph-7981
p6243
aV\U0001f232
p6244
aa(lp6245
Vcircled-ideograph-accept
p6246
aV\U0001f251
p6247
aa(lp6248
Vsquared-cjk-unified-ideograph-7533
p6249
aV\U0001f238
p6250
aa(lp6251
Vsquared-cjk-unified-ideograph-5408
p6252
aV\U0001f234
p6253
aa(lp6254
Vsquared-cjk-unified-ideograph-7a7a
p6255
aV\U0001f233
p6256
aa(lp6257
Vcircled-ideograph-congratulation
p6258
aV\u3297
p6259
aa(lp6260
Vcircled-ideograph-secret
p6261
aV\u3299
p6262
aa(lp6263
Vsquared-cjk-unified-ideograph-55b6
p6264
aV\U0001f23a
p6265
aa(lp6266
Vsquared-cjk-unified-ideograph-6e80
p6267
aV\U0001f235
p6268
aa(lp6269
Vblack-small-square
p6270
aV\u25aa
p6271
aa(lp6272
Vwhite-small-square
p6273
aV\u25ab
p6274
aa(lp6275
Vwhite-medium-square
p6276
aV\u25fb
p6277
aa(lp6278
Vblack-medium-square
p6279
aV\u25fc
p6280
aa(lp6281
Vwhite-medium-small-square
p6282
aV\u25fd
p6283
aa(lp6284
Vblack-medium-small-square
p6285
aV\u25fe
p6286
aa(lp6287
Vblack-large-square
p6288
aV\u2b1b
p6289
aa(lp6290
Vwhite-large-square
p6291
aV\u2b1c
p6292
aa(lp6293
Vlarge-orange-diamond
p6294
aV\U0001f536
p6295
aa(lp6296
Vlarge-blue-diamond
p6297
aV\U0001f537
p6298
aa(lp6299
Vsmall-orange-diamond
p6300
aV\U0001f538
p6301
aa(lp6302
Vsmall-blue-diamond
p6303
aV\U0001f539
p6304
aa(lp6305
Vup-pointing-red-triangle
p6306
aV\U0001f53a
p6307
aa(lp6308
Vdown-pointing-red-triangle
p6309
aV\U0001f53b
p6310
aa(lp6311
Vdiamond-shape-with-a-dot-inside
p6312
aV\U0001f4a0
p6313
aa(lp6314
Vradio-button
p6315
aV\U0001f518
p6316
aa(lp6317
Vblack-square-button
p6318
aV\U0001f532
p6319
aa(lp6320
Vwhite-square-button
p6321
aV\U0001f533
p6322
aa(lp6323
Vmedium-white-circle
p6324
aV\u26aa
p6325
aa(lp6326
Vmedium-black-circle
p6327
aV\u26ab
p6328
aa(lp6329
Vlarge-red-circle
p6330
aV\U0001f534
p6331
aa(lp6332
Vlarge-blue-circle
p6333
aV\U0001f535
p6334
aa(lp6335
Vchequered-flag
p6336
aV\U0001f3c1
p6337
aa(lp6338
Vtriangular-flag-on-post
p6339
aV\U0001f6a9
p6340
aa(lp6341
Vcrossed-flags
p6342
aV\U0001f38c
p6343
aa(lp6344
Vwaving-black-flag
p6345
aV\U0001f3f4
p6346
aa(lp6347
Vwaving-white-flag
p6348
aV\U0001f3f3
p6349
aa(lp6350
Vrainbow-flag
p6351
aV\U0001f3f3\ufe0f\u200d\U0001f308
p6352
aa(lp6353
Vflag-for-ascension-island
p6354
aV\U0001f1e6\U0001f1e8
p6355
aa(lp6356
Vflag-for-andorra
p6357
aV\U0001f1e6\U0001f1e9
p6358
aa(lp6359
Vflag-for-united-arab-emirates
p6360
aV\U0001f1e6\U0001f1ea
p6361
aa(lp6362
Vflag-for-afghanistan
p6363
aV\U0001f1e6\U0001f1eb
p6364
aa(lp6365
Vflag-for-antigua-barbuda
p6366
aV\U0001f1e6\U0001f1ec
p6367
aa(lp6368
Vflag-for-anguilla
p6369
aV\U0001f1e6\U0001f1ee
p6370
aa(lp6371
Vflag-for-albania
p6372
aV\U0001f1e6\U0001f1f1
p6373
aa(lp6374
Vflag-for-armenia
p6375
aV\U0001f1e6\U0001f1f2
p6376
aa(lp6377
Vflag-for-angola
p6378
aV\U0001f1e6\U0001f1f4
p6379
aa(lp6380
Vflag-for-antarctica
p6381
aV\U0001f1e6\U0001f1f6
p6382
aa(lp6383
Vflag-for-argentina
p6384
aV\U0001f1e6\U0001f1f7
p6385
aa(lp6386
Vflag-for-american-samoa
p6387
aV\U0001f1e6\U0001f1f8
p6388
aa(lp6389
Vflag-for-austria
p6390
aV\U0001f1e6\U0001f1f9
p6391
aa(lp6392
Vflag-for-australia
p6393
aV\U0001f1e6\U0001f1fa
p6394
aa(lp6395
Vflag-for-aruba
p6396
aV\U0001f1e6\U0001f1fc
p6397
aa(lp6398
Vflag-for-aland-islands
p6399
aV\U0001f1e6\U0001f1fd
p6400
aa(lp6401
Vflag-for-azerbaijan
p6402
aV\U0001f1e6\U0001f1ff
p6403
aa(lp6404
Vflag-for-bosnia-herzegovina
p6405
aV\U0001f1e7\U0001f1e6
p6406
aa(lp6407
Vflag-for-barbados
p6408
aV\U0001f1e7\U0001f1e7
p6409
aa(lp6410
Vflag-for-bangladesh
p6411
aV\U0001f1e7\U0001f1e9
p6412
aa(lp6413
Vflag-for-belgium
p6414
aV\U0001f1e7\U0001f1ea
p6415
aa(lp6416
Vflag-for-burkina-faso
p6417
aV\U0001f1e7\U0001f1eb
p6418
aa(lp6419
Vflag-for-bulgaria
p6420
aV\U0001f1e7\U0001f1ec
p6421
aa(lp6422
Vflag-for-bahrain
p6423
aV\U0001f1e7\U0001f1ed
p6424
aa(lp6425
Vflag-for-burundi
p6426
aV\U0001f1e7\U0001f1ee
p6427
aa(lp6428
Vflag-for-benin
p6429
aV\U0001f1e7\U0001f1ef
p6430
aa(lp6431
Vflag-for-st-barthelemy
p6432
aV\U0001f1e7\U0001f1f1
p6433
aa(lp6434
Vflag-for-bermuda
p6435
aV\U0001f1e7\U0001f1f2
p6436
aa(lp6437
Vflag-for-brunei
p6438
aV\U0001f1e7\U0001f1f3
p6439
aa(lp6440
Vflag-for-bolivia
p6441
aV\U0001f1e7\U0001f1f4
p6442
aa(lp6443
Vflag-for-caribbean-netherlands
p6444
aV\U0001f1e7\U0001f1f6
p6445
aa(lp6446
Vflag-for-brazil
p6447
aV\U0001f1e7\U0001f1f7
p6448
aa(lp6449
Vflag-for-bahamas
p6450
aV\U0001f1e7\U0001f1f8
p6451
aa(lp6452
Vflag-for-bhutan
p6453
aV\U0001f1e7\U0001f1f9
p6454
aa(lp6455
Vflag-for-botswana
p6456
aV\U0001f1e7\U0001f1fc
p6457
aa(lp6458
Vflag-for-belarus
p6459
aV\U0001f1e7\U0001f1fe
p6460
aa(lp6461
Vflag-for-belize
p6462
aV\U0001f1e7\U0001f1ff
p6463
aa(lp6464
Vflag-for-canada
p6465
aV\U0001f1e8\U0001f1e6
p6466
aa(lp6467
Vflag-for-cocos-islands
p6468
aV\U0001f1e8\U0001f1e8
p6469
aa(lp6470
Vflag-for-congo-kinshasa
p6471
aV\U0001f1e8\U0001f1e9
p6472
aa(lp6473
Vflag-for-central-african-republic
p6474
aV\U0001f1e8\U0001f1eb
p6475
aa(lp6476
Vflag-for-congo-brazzaville
p6477
aV\U0001f1e8\U0001f1ec
p6478
aa(lp6479
Vflag-for-switzerland
p6480
aV\U0001f1e8\U0001f1ed
p6481
aa(lp6482
Vflag-for-cote-divoire
p6483
aV\U0001f1e8\U0001f1ee
p6484
aa(lp6485
Vflag-for-cook-islands
p6486
aV\U0001f1e8\U0001f1f0
p6487
aa(lp6488
Vflag-for-chile
p6489
aV\U0001f1e8\U0001f1f1
p6490
aa(lp6491
Vflag-for-cameroon
p6492
aV\U0001f1e8\U0001f1f2
p6493
aa(lp6494
Vflag-for-china
p6495
aV\U0001f1e8\U0001f1f3
p6496
aa(lp6497
Vflag-for-colombia
p6498
aV\U0001f1e8\U0001f1f4
p6499
aa(lp6500
Vflag-for-clipperton-island
p6501
aV\U0001f1e8\U0001f1f5
p6502
aa(lp6503
Vflag-for-costa-rica
p6504
aV\U0001f1e8\U0001f1f7
p6505
aa(lp6506
Vflag-for-cuba
p6507
aV\U0001f1e8\U0001f1fa
p6508
aa(lp6509
Vflag-for-cape-verde
p6510
aV\U0001f1e8\U0001f1fb
p6511
aa(lp6512
Vflag-for-curacao
p6513
aV\U0001f1e8\U0001f1fc
p6514
aa(lp6515
Vflag-for-christmas-island
p6516
aV\U0001f1e8\U0001f1fd
p6517
aa(lp6518
Vflag-for-cyprus
p6519
aV\U0001f1e8\U0001f1fe
p6520
aa(lp6521
Vflag-for-czech-republic
p6522
aV\U0001f1e8\U0001f1ff
p6523
aa(lp6524
Vflag-for-germany
p6525
aV\U0001f1e9\U0001f1ea
p6526
aa(lp6527
Vflag-for-diego-garcia
p6528
aV\U0001f1e9\U0001f1ec
p6529
aa(lp6530
Vflag-for-djibouti
p6531
aV\U0001f1e9\U0001f1ef
p6532
aa(lp6533
Vflag-for-denmark
p6534
aV\U0001f1e9\U0001f1f0
p6535
aa(lp6536
Vflag-for-dominica
p6537
aV\U0001f1e9\U0001f1f2
p6538
aa(lp6539
Vflag-for-dominican-republic
p6540
aV\U0001f1e9\U0001f1f4
p6541
aa(lp6542
Vflag-for-algeria
p6543
aV\U0001f1e9\U0001f1ff
p6544
aa(lp6545
Vflag-for-ceuta-melilla
p6546
aV\U0001f1ea\U0001f1e6
p6547
aa(lp6548
Vflag-for-ecuador
p6549
aV\U0001f1ea\U0001f1e8
p6550
aa(lp6551
Vflag-for-estonia
p6552
aV\U0001f1ea\U0001f1ea
p6553
aa(lp6554
Vflag-for-egypt
p6555
aV\U0001f1ea\U0001f1ec
p6556
aa(lp6557
Vflag-for-western-sahara
p6558
aV\U0001f1ea\U0001f1ed
p6559
aa(lp6560
Vflag-for-eritrea
p6561
aV\U0001f1ea\U0001f1f7
p6562
aa(lp6563
Vflag-for-spain
p6564
aV\U0001f1ea\U0001f1f8
p6565
aa(lp6566
Vflag-for-ethiopia
p6567
aV\U0001f1ea\U0001f1f9
p6568
aa(lp6569
Vflag-for-european-union
p6570
aV\U0001f1ea\U0001f1fa
p6571
aa(lp6572
Vflag-for-finland
p6573
aV\U0001f1eb\U0001f1ee
p6574
aa(lp6575
Vflag-for-fiji
p6576
aV\U0001f1eb\U0001f1ef
p6577
aa(lp6578
Vflag-for-falkland-islands
p6579
aV\U0001f1eb\U0001f1f0
p6580
aa(lp6581
Vflag-for-micronesia
p6582
aV\U0001f1eb\U0001f1f2
p6583
aa(lp6584
Vflag-for-faroe-islands
p6585
aV\U0001f1eb\U0001f1f4
p6586
aa(lp6587
Vflag-for-france
p6588
aV\U0001f1eb\U0001f1f7
p6589
aa(lp6590
Vflag-for-gabon
p6591
aV\U0001f1ec\U0001f1e6
p6592
aa(lp6593
Vflag-for-united-kingdom
p6594
aV\U0001f1ec\U0001f1e7
p6595
aa(lp6596
Vflag-for-grenada
p6597
aV\U0001f1ec\U0001f1e9
p6598
aa(lp6599
Vflag-for-georgia
p6600
aV\U0001f1ec\U0001f1ea
p6601
aa(lp6602
Vflag-for-french-guiana
p6603
aV\U0001f1ec\U0001f1eb
p6604
aa(lp6605
Vflag-for-guernsey
p6606
aV\U0001f1ec\U0001f1ec
p6607
aa(lp6608
Vflag-for-ghana
p6609
aV\U0001f1ec\U0001f1ed
p6610
aa(lp6611
Vflag-for-gibraltar
p6612
aV\U0001f1ec\U0001f1ee
p6613
aa(lp6614
Vflag-for-greenland
p6615
aV\U0001f1ec\U0001f1f1
p6616
aa(lp6617
Vflag-for-gambia
p6618
aV\U0001f1ec\U0001f1f2
p6619
aa(lp6620
Vflag-for-guinea
p6621
aV\U0001f1ec\U0001f1f3
p6622
aa(lp6623
Vflag-for-guadeloupe
p6624
aV\U0001f1ec\U0001f1f5
p6625
aa(lp6626
Vflag-for-equatorial-guinea
p6627
aV\U0001f1ec\U0001f1f6
p6628
aa(lp6629
Vflag-for-greece
p6630
aV\U0001f1ec\U0001f1f7
p6631
aa(lp6632
Vflag-for-south-georgia-south-sandwich-islands
p6633
aV\U0001f1ec\U0001f1f8
p6634
aa(lp6635
Vflag-for-guatemala
p6636
aV\U0001f1ec\U0001f1f9
p6637
aa(lp6638
Vflag-for-guam
p6639
aV\U0001f1ec\U0001f1fa
p6640
aa(lp6641
Vflag-for-guinea-bissau
p6642
aV\U0001f1ec\U0001f1fc
p6643
aa(lp6644
Vflag-for-guyana
p6645
aV\U0001f1ec\U0001f1fe
p6646
aa(lp6647
Vflag-for-hong-kong
p6648
aV\U0001f1ed\U0001f1f0
p6649
aa(lp6650
Vflag-for-heard-mcdonald-islands
p6651
aV\U0001f1ed\U0001f1f2
p6652
aa(lp6653
Vflag-for-honduras
p6654
aV\U0001f1ed\U0001f1f3
p6655
aa(lp6656
Vflag-for-croatia
p6657
aV\U0001f1ed\U0001f1f7
p6658
aa(lp6659
Vflag-for-haiti
p6660
aV\U0001f1ed\U0001f1f9
p6661
aa(lp6662
Vflag-for-hungary
p6663
aV\U0001f1ed\U0001f1fa
p6664
aa(lp6665
Vflag-for-canary-islands
p6666
aV\U0001f1ee\U0001f1e8
p6667
aa(lp6668
Vflag-for-indonesia
p6669
aV\U0001f1ee\U0001f1e9
p6670
aa(lp6671
Vflag-for-ireland
p6672
aV\U0001f1ee\U0001f1ea
p6673
aa(lp6674
Vflag-for-israel
p6675
aV\U0001f1ee\U0001f1f1
p6676
aa(lp6677
Vflag-for-isle-of-man
p6678
aV\U0001f1ee\U0001f1f2
p6679
aa(lp6680
Vflag-for-india
p6681
aV\U0001f1ee\U0001f1f3
p6682
aa(lp6683
Vflag-for-british-indian-ocean-territory
p6684
aV\U0001f1ee\U0001f1f4
p6685
aa(lp6686
Vflag-for-iraq
p6687
aV\U0001f1ee\U0001f1f6
p6688
aa(lp6689
Vflag-for-iran
p6690
aV\U0001f1ee\U0001f1f7
p6691
aa(lp6692
Vflag-for-iceland
p6693
aV\U0001f1ee\U0001f1f8
p6694
aa(lp6695
Vflag-for-italy
p6696
aV\U0001f1ee\U0001f1f9
p6697
aa(lp6698
Vflag-for-jersey
p6699
aV\U0001f1ef\U0001f1ea
p6700
aa(lp6701
Vflag-for-jamaica
p6702
aV\U0001f1ef\U0001f1f2
p6703
aa(lp6704
Vflag-for-jordan
p6705
aV\U0001f1ef\U0001f1f4
p6706
aa(lp6707
Vflag-for-japan
p6708
aV\U0001f1ef\U0001f1f5
p6709
aa(lp6710
Vflag-for-kenya
p6711
aV\U0001f1f0\U0001f1ea
p6712
aa(lp6713
Vflag-for-kyrgyzstan
p6714
aV\U0001f1f0\U0001f1ec
p6715
aa(lp6716
Vflag-for-cambodia
p6717
aV\U0001f1f0\U0001f1ed
p6718
aa(lp6719
Vflag-for-kiribati
p6720
aV\U0001f1f0\U0001f1ee
p6721
aa(lp6722
Vflag-for-comoros
p6723
aV\U0001f1f0\U0001f1f2
p6724
aa(lp6725
Vflag-for-st-kitts-nevis
p6726
aV\U0001f1f0\U0001f1f3
p6727
aa(lp6728
Vflag-for-north-korea
p6729
aV\U0001f1f0\U0001f1f5
p6730
aa(lp6731
Vflag-for-south-korea
p6732
aV\U0001f1f0\U0001f1f7
p6733
aa(lp6734
Vflag-for-kuwait
p6735
aV\U0001f1f0\U0001f1fc
p6736
aa(lp6737
Vflag-for-cayman-islands
p6738
aV\U0001f1f0\U0001f1fe
p6739
aa(lp6740
Vflag-for-kazakhstan
p6741
aV\U0001f1f0\U0001f1ff
p6742
aa(lp6743
Vflag-for-laos
p6744
aV\U0001f1f1\U0001f1e6
p6745
aa(lp6746
Vflag-for-lebanon
p6747
aV\U0001f1f1\U0001f1e7
p6748
aa(lp6749
Vflag-for-st-lucia
p6750
aV\U0001f1f1\U0001f1e8
p6751
aa(lp6752
Vflag-for-liechtenstein
p6753
aV\U0001f1f1\U0001f1ee
p6754
aa(lp6755
Vflag-for-sri-lanka
p6756
aV\U0001f1f1\U0001f1f0
p6757
aa(lp6758
Vflag-for-liberia
p6759
aV\U0001f1f1\U0001f1f7
p6760
aa(lp6761
Vflag-for-lesotho
p6762
aV\U0001f1f1\U0001f1f8
p6763
aa(lp6764
Vflag-for-lithuania
p6765
aV\U0001f1f1\U0001f1f9
p6766
aa(lp6767
Vflag-for-luxembourg
p6768
aV\U0001f1f1\U0001f1fa
p6769
aa(lp6770
Vflag-for-latvia
p6771
aV\U0001f1f1\U0001f1fb
p6772
aa(lp6773
Vflag-for-libya
p6774
aV\U0001f1f1\U0001f1fe
p6775
aa(lp6776
Vflag-for-morocco
p6777
aV\U0001f1f2\U0001f1e6
p6778
aa(lp6779
Vflag-for-monaco
p6780
aV\U0001f1f2\U0001f1e8
p6781
aa(lp6782
Vflag-for-moldova
p6783
aV\U0001f1f2\U0001f1e9
p6784
aa(lp6785
Vflag-for-montenegro
p6786
aV\U0001f1f2\U0001f1ea
p6787
aa(lp6788
Vflag-for-st-martin
p6789
aV\U0001f1f2\U0001f1eb
p6790
aa(lp6791
Vflag-for-madagascar
p6792
aV\U0001f1f2\U0001f1ec
p6793
aa(lp6794
Vflag-for-marshall-islands
p6795
aV\U0001f1f2\U0001f1ed
p6796
aa(lp6797
Vflag-for-macedonia
p6798
aV\U0001f1f2\U0001f1f0
p6799
aa(lp6800
Vflag-for-mali
p6801
aV\U0001f1f2\U0001f1f1
p6802
aa(lp6803
Vflag-for-myanmar
p6804
aV\U0001f1f2\U0001f1f2
p6805
aa(lp6806
Vflag-for-mongolia
p6807
aV\U0001f1f2\U0001f1f3
p6808
aa(lp6809
Vflag-for-macau
p6810
aV\U0001f1f2\U0001f1f4
p6811
aa(lp6812
Vflag-for-northern-mariana-islands
p6813
aV\U0001f1f2\U0001f1f5
p6814
aa(lp6815
Vflag-for-martinique
p6816
aV\U0001f1f2\U0001f1f6
p6817
aa(lp6818
Vflag-for-mauritania
p6819
aV\U0001f1f2\U0001f1f7
p6820
aa(lp6821
Vflag-for-montserrat
p6822
aV\U0001f1f2\U0001f1f8
p6823
aa(lp6824
Vflag-for-malta
p6825
aV\U0001f1f2\U0001f1f9
p6826
aa(lp6827
Vflag-for-mauritius
p6828
aV\U0001f1f2\U0001f1fa
p6829
aa(lp6830
Vflag-for-maldives
p6831
aV\U0001f1f2\U0001f1fb
p6832
aa(lp6833
Vflag-for-malawi
p6834
aV\U0001f1f2\U0001f1fc
p6835
aa(lp6836
Vflag-for-mexico
p6837
aV\U0001f1f2\U0001f1fd
p6838
aa(lp6839
Vflag-for-malaysia
p6840
aV\U0001f1f2\U0001f1fe
p6841
aa(lp6842
Vflag-for-mozambique
p6843
aV\U0001f1f2\U0001f1ff
p6844
aa(lp6845
Vflag-for-namibia
p6846
aV\U0001f1f3\U0001f1e6
p6847
aa(lp6848
Vflag-for-new-caledonia
p6849
aV\U0001f1f3\U0001f1e8
p6850
aa(lp6851
Vflag-for-niger
p6852
aV\U0001f1f3\U0001f1ea
p6853
aa(lp6854
Vflag-for-norfolk-island
p6855
aV\U0001f1f3\U0001f1eb
p6856
aa(lp6857
Vflag-for-nigeria
p6858
aV\U0001f1f3\U0001f1ec
p6859
aa(lp6860
Vflag-for-nicaragua
p6861
aV\U0001f1f3\U0001f1ee
p6862
aa(lp6863
Vflag-for-netherlands
p6864
aV\U0001f1f3\U0001f1f1
p6865
aa(lp6866
Vflag-for-norway
p6867
aV\U0001f1f3\U0001f1f4
p6868
aa(lp6869
Vflag-for-nepal
p6870
aV\U0001f1f3\U0001f1f5
p6871
aa(lp6872
Vflag-for-nauru
p6873
aV\U0001f1f3\U0001f1f7
p6874
aa(lp6875
Vflag-for-niue
p6876
aV\U0001f1f3\U0001f1fa
p6877
aa(lp6878
Vflag-for-new-zealand
p6879
aV\U0001f1f3\U0001f1ff
p6880
aa(lp6881
Vflag-for-oman
p6882
aV\U0001f1f4\U0001f1f2
p6883
aa(lp6884
Vflag-for-panama
p6885
aV\U0001f1f5\U0001f1e6
p6886
aa(lp6887
Vflag-for-peru
p6888
aV\U0001f1f5\U0001f1ea
p6889
aa(lp6890
Vflag-for-french-polynesia
p6891
aV\U0001f1f5\U0001f1eb
p6892
aa(lp6893
Vflag-for-papua-new-guinea
p6894
aV\U0001f1f5\U0001f1ec
p6895
aa(lp6896
Vflag-for-philippines
p6897
aV\U0001f1f5\U0001f1ed
p6898
aa(lp6899
Vflag-for-pakistan
p6900
aV\U0001f1f5\U0001f1f0
p6901
aa(lp6902
Vflag-for-poland
p6903
aV\U0001f1f5\U0001f1f1
p6904
aa(lp6905
Vflag-for-st-pierre-miquelon
p6906
aV\U0001f1f5\U0001f1f2
p6907
aa(lp6908
Vflag-for-pitcairn-islands
p6909
aV\U0001f1f5\U0001f1f3
p6910
aa(lp6911
Vflag-for-puerto-rico
p6912
aV\U0001f1f5\U0001f1f7
p6913
aa(lp6914
Vflag-for-palestinian-territories
p6915
aV\U0001f1f5\U0001f1f8
p6916
aa(lp6917
Vflag-for-portugal
p6918
aV\U0001f1f5\U0001f1f9
p6919
aa(lp6920
Vflag-for-palau
p6921
aV\U0001f1f5\U0001f1fc
p6922
aa(lp6923
Vflag-for-paraguay
p6924
aV\U0001f1f5\U0001f1fe
p6925
aa(lp6926
Vflag-for-qatar
p6927
aV\U0001f1f6\U0001f1e6
p6928
aa(lp6929
Vflag-for-reunion
p6930
aV\U0001f1f7\U0001f1ea
p6931
aa(lp6932
Vflag-for-romania
p6933
aV\U0001f1f7\U0001f1f4
p6934
aa(lp6935
Vflag-for-serbia
p6936
aV\U0001f1f7\U0001f1f8
p6937
aa(lp6938
Vflag-for-russia
p6939
aV\U0001f1f7\U0001f1fa
p6940
aa(lp6941
Vflag-for-rwanda
p6942
aV\U0001f1f7\U0001f1fc
p6943
aa(lp6944
Vflag-for-saudi-arabia
p6945
aV\U0001f1f8\U0001f1e6
p6946
aa(lp6947
Vflag-for-solomon-islands
p6948
aV\U0001f1f8\U0001f1e7
p6949
aa(lp6950
Vflag-for-seychelles
p6951
aV\U0001f1f8\U0001f1e8
p6952
aa(lp6953
Vflag-for-sudan
p6954
aV\U0001f1f8\U0001f1e9
p6955
aa(lp6956
Vflag-for-sweden
p6957
aV\U0001f1f8\U0001f1ea
p6958
aa(lp6959
Vflag-for-singapore
p6960
aV\U0001f1f8\U0001f1ec
p6961
aa(lp6962
Vflag-for-st-helena
p6963
aV\U0001f1f8\U0001f1ed
p6964
aa(lp6965
Vflag-for-slovenia
p6966
aV\U0001f1f8\U0001f1ee
p6967
aa(lp6968
Vflag-for-svalbard-jan-mayen
p6969
aV\U0001f1f8\U0001f1ef
p6970
aa(lp6971
Vflag-for-slovakia
p6972
aV\U0001f1f8\U0001f1f0
p6973
aa(lp6974
Vflag-for-sierra-leone
p6975
aV\U0001f1f8\U0001f1f1
p6976
aa(lp6977
Vflag-for-san-marino
p6978
aV\U0001f1f8\U0001f1f2
p6979
aa(lp6980
Vflag-for-senegal
p6981
aV\U0001f1f8\U0001f1f3
p6982
aa(lp6983
Vflag-for-somalia
p6984
aV\U0001f1f8\U0001f1f4
p6985
aa(lp6986
Vflag-for-suriname
p6987
aV\U0001f1f8\U0001f1f7
p6988
aa(lp6989
Vflag-for-south-sudan
p6990
aV\U0001f1f8\U0001f1f8
p6991
aa(lp6992
Vflag-for-sao-tome-principe
p6993
aV\U0001f1f8\U0001f1f9
p6994
aa(lp6995
Vflag-for-el-salvador
p6996
aV\U0001f1f8\U0001f1fb
p6997
aa(lp6998
Vflag-for-sint-maarten
p6999
aV\U0001f1f8\U0001f1fd
p7000
aa(lp7001
Vflag-for-syria
p7002
aV\U0001f1f8\U0001f1fe
p7003
aa(lp7004
Vflag-for-swaziland
p7005
aV\U0001f1f8\U0001f1ff
p7006
aa(lp7007
Vflag-for-tristan-da-cunha
p7008
aV\U0001f1f9\U0001f1e6
p7009
aa(lp7010
Vflag-for-turks-caicos-islands
p7011
aV\U0001f1f9\U0001f1e8
p7012
aa(lp7013
Vflag-for-chad
p7014
aV\U0001f1f9\U0001f1e9
p7015
aa(lp7016
Vflag-for-french-southern-territories
p7017
aV\U0001f1f9\U0001f1eb
p7018
aa(lp7019
Vflag-for-togo
p7020
aV\U0001f1f9\U0001f1ec
p7021
aa(lp7022
Vflag-for-thailand
p7023
aV\U0001f1f9\U0001f1ed
p7024
aa(lp7025
Vflag-for-tajikistan
p7026
aV\U0001f1f9\U0001f1ef
p7027
aa(lp7028
Vflag-for-tokelau
p7029
aV\U0001f1f9\U0001f1f0
p7030
aa(lp7031
Vflag-for-timor-leste
p7032
aV\U0001f1f9\U0001f1f1
p7033
aa(lp7034
Vflag-for-turkmenistan
p7035
aV\U0001f1f9\U0001f1f2
p7036
aa(lp7037
Vflag-for-tunisia
p7038
aV\U0001f1f9\U0001f1f3
p7039
aa(lp7040
Vflag-for-tonga
p7041
aV\U0001f1f9\U0001f1f4
p7042
aa(lp7043
Vflag-for-turkey
p7044
aV\U0001f1f9\U0001f1f7
p7045
aa(lp7046
Vflag-for-trinidad-tobago
p7047
aV\U0001f1f9\U0001f1f9
p7048
aa(lp7049
Vflag-for-tuvalu
p7050
aV\U0001f1f9\U0001f1fb
p7051
aa(lp7052
Vflag-for-taiwan
p7053
aV\U0001f1f9\U0001f1fc
p7054
aa(lp7055
Vflag-for-tanzania
p7056
aV\U0001f1f9\U0001f1ff
p7057
aa(lp7058
Vflag-for-ukraine
p7059
aV\U0001f1fa\U0001f1e6
p7060
aa(lp7061
Vflag-for-uganda
p7062
aV\U0001f1fa\U0001f1ec
p7063
aa(lp7064
Vflag-for-us-outlying-islands
p7065
aV\U0001f1fa\U0001f1f2
p7066
aa(lp7067
Vflag-for-united-states
p7068
aV\U0001f1fa\U0001f1f8
p7069
aa(lp7070
Vflag-for-uruguay
p7071
aV\U0001f1fa\U0001f1fe
p7072
aa(lp7073
Vflag-for-uzbekistan
p7074
aV\U0001f1fa\U0001f1ff
p7075
aa(lp7076
Vflag-for-vatican-city
p7077
aV\U0001f1fb\U0001f1e6
p7078
aa(lp7079
Vflag-for-st-vincent-grenadines
p7080
aV\U0001f1fb\U0001f1e8
p7081
aa(lp7082
Vflag-for-venezuela
p7083
aV\U0001f1fb\U0001f1ea
p7084
aa(lp7085
Vflag-for-british-virgin-islands
p7086
aV\U0001f1fb\U0001f1ec
p7087
aa(lp7088
Vflag-for-us-virgin-islands
p7089
aV\U0001f1fb\U0001f1ee
p7090
aa(lp7091
Vflag-for-vietnam
p7092
aV\U0001f1fb\U0001f1f3
p7093
aa(lp7094
Vflag-for-vanuatu
p7095
aV\U0001f1fb\U0001f1fa
p7096
aa(lp7097
Vflag-for-wallis-futuna
p7098
aV\U0001f1fc\U0001f1eb
p7099
aa(lp7100
Vflag-for-samoa
p7101
aV\U0001f1fc\U0001f1f8
p7102
aa(lp7103
Vflag-for-kosovo
p7104
aV\U0001f1fd\U0001f1f0
p7105
aa(lp7106
Vflag-for-yemen
p7107
aV\U0001f1fe\U0001f1ea
p7108
aa(lp7109
Vflag-for-mayotte
p7110
aV\U0001f1fe\U0001f1f9
p7111
aa(lp7112
Vflag-for-south-africa
p7113
aV\U0001f1ff\U0001f1e6
p7114
aa(lp7115
Vflag-for-zambia
p7116
aV\U0001f1ff\U0001f1f2
p7117
aa(lp7118
Vflag-for-zimbabwe
p7119
aV\U0001f1ff\U0001f1fc
p7120
aatp7121
Rp7122
.